(lp0
(lp1
S'AAAAAC'
p2
aI2600
aI196
aa(lp3
S'GAACGT'
p4
aI405
aI20
aa(lp5
S'CTTCTT'
p6
aI1993
aI167
aa(lp7
S'CACCCT'
p8
aI315
aI37
aa(lp9
S'GAACGG'
p10
aI342
aI34
aa(lp11
S'GAACGC'
p12
aI281
aI24
aa(lp13
S'GAACGA'
p14
aI568
aI78
aa(lp15
S'CACCCA'
p16
aI519
aI98
aa(lp17
S'CTTCTA'
p18
aI1070
aI89
aa(lp19
S'CACCCC'
p20
aI247
aI41
aa(lp21
S'CTTCTC'
p22
aI894
aI86
aa(lp23
S'CACCCG'
p24
aI202
aI54
aa(lp25
S'CTTCTG'
p26
aI712
aI43
aa(lp27
S'CGTGTG'
p28
aI310
aI35
aa(lp29
S'TAAGGT'
p30
aI676
aI69
aa(lp31
S'ACATGG'
p32
aI456
aI55
aa(lp33
S'TGTCAG'
p34
aI468
aI70
aa(lp35
S'CGTGTA'
p36
aI421
aI49
aa(lp37
S'AATGAC'
p38
aI863
aI98
aa(lp39
S'TAAGGG'
p40
aI492
aI74
aa(lp41
S'CGTGTT'
p42
aI409
aI52
aa(lp43
S'TAAGGC'
p44
aI403
aI40
aa(lp45
S'TAAGGA'
p46
aI805
aI90
aa(lp47
S'TCACTG'
p48
aI557
aI49
aa(lp49
S'GTCAAA'
p50
aI906
aI80
aa(lp51
S'CCCGCT'
p52
aI219
aI20
aa(lp53
S'GTCAAG'
p54
aI471
aI36
aa(lp55
S'CTGTCC'
p56
aI280
aI16
aa(lp57
S'TCAGAG'
p58
aI425
aI37
aa(lp59
S'CTGTCA'
p60
aI573
aI61
aa(lp61
S'CTCGCC'
p62
aI190
aI15
aa(lp63
S'CTGTCG'
p64
aI274
aI34
aa(lp65
S'GTATCT'
p66
aI724
aI54
aa(lp67
S'CTGTGC'
p68
aI385
aI26
aa(lp69
S'TCAGAA'
p70
aI967
aI90
aa(lp71
S'GTCAAT'
p72
aI693
aI53
aa(lp73
S'GTATCA'
p74
aI666
aI77
aa(lp75
S'TCAGAT'
p76
aI659
aI93
aa(lp77
S'GTATCG'
p78
aI388
aI50
aa(lp79
S'CTGTCT'
p80
aI485
aI28
aa(lp81
S'GGTGTC'
p82
aI275
aI33
aa(lp83
S'GGTGTA'
p84
aI486
aI53
aa(lp85
S'GGTGTG'
p86
aI362
aI30
aa(lp87
S'TATCCT'
p88
aI886
aI97
aa(lp89
S'CCGGGG'
p90
aI139
aI22
aa(lp91
S'TTCTGT'
p92
aI1222
aI102
aa(lp93
S'ATTCCT'
p94
aI1045
aI118
aa(lp95
S'CCGGGC'
p96
aI112
aI21
aa(lp97
S'CCGGGA'
p98
aI129
aI11
aa(lp99
S'TATCCA'
p100
aI767
aI85
aa(lp101
S'TATCCC'
p102
aI412
aI33
aa(lp103
S'TGGTTG'
p104
aI548
aI67
aa(lp105
S'TACACC'
p106
aI474
aI48
aa(lp107
S'TATCCG'
p108
aI369
aI40
aa(lp109
S'GGTGTT'
p110
aI584
aI83
aa(lp111
S'ATTCCG'
p112
aI483
aI79
aa(lp113
S'TTCTGG'
p114
aI585
aI46
aa(lp115
S'CCGGGT'
p116
aI228
aI91
aa(lp117
S'ATTCCC'
p118
aI546
aI76
aa(lp119
S'TTCTGC'
p120
aI765
aI37
aa(lp121
S'ATTCCA'
p122
aI917
aI126
aa(lp123
S'TTCTGA'
p124
aI929
aI81
aa(lp125
S'TGCACT'
p126
aI589
aI49
aa(lp127
S'CTGCCC'
p128
aI248
aI8
aa(lp129
S'TATCTT'
p130
aI1670
aI164
aa(lp131
S'CGCGGT'
p132
aI142
aI14
aa(lp133
S'CCCGCG'
p134
aI141
aI25
aa(lp135
S'ACGAAC'
p136
aI490
aI68
aa(lp137
S'CGCGGG'
p138
aI165
aI24
aa(lp139
S'CCCTAG'
p140
aI174
aI18
aa(lp141
S'CGCGGC'
p142
aI173
aI26
aa(lp143
S'CGCGGA'
p144
aI194
aI36
aa(lp145
S'ACAGGT'
p146
aI439
aI32
aa(lp147
S'ACCTGT'
p148
aI427
aI21
aa(lp149
S'TCATGT'
p150
aI779
aI66
aa(lp151
S'CTCCGA'
p152
aI251
aI41
aa(lp153
S'TTACAG'
p154
aI799
aI67
aa(lp155
S'CTCCGC'
p156
aI216
aI16
aa(lp157
S'TTACAA'
p158
aI1394
aI121
aa(lp159
S'TTACAC'
p160
aI725
aI48
aa(lp161
S'CTCCGG'
p162
aI192
aI19
aa(lp163
S'TCATGC'
p164
aI472
aI51
aa(lp165
S'ACCTGG'
p166
aI282
aI43
aa(lp167
S'TCATGA'
p168
aI724
aI69
aa(lp169
S'TCATGG'
p170
aI401
aI31
aa(lp171
S'CCCGCA'
p172
aI219
aI25
aa(lp173
S'ACCTGA'
p174
aI424
aI52
aa(lp175
S'TTACAT'
p176
aI1522
aI165
aa(lp177
S'CTCCGT'
p178
aI276
aI31
aa(lp179
S'GCCTGA'
p180
aI295
aI26
aa(lp181
S'GCCTGC'
p182
aI271
aI13
aa(lp183
S'GCCTGG'
p184
aI183
aI20
aa(lp185
S'TCTTGC'
p186
aI798
aI83
aa(lp187
S'TAAAGG'
p188
aI1066
aI98
aa(lp189
S'CAAATT'
p190
aI1570
aI142
aa(lp191
S'TAAAGA'
p192
aI1801
aI152
aa(lp193
S'AAGGTC'
p194
aI436
aI37
aa(lp195
S'GCCTGT'
p196
aI319
aI21
aa(lp197
S'CGTCAA'
p198
aI508
aI55
aa(lp199
S'TAAAGT'
p200
aI1275
aI77
aa(lp201
S'CAAATA'
p202
aI1926
aI199
aa(lp203
S'ACGTCC'
p204
aI188
aI10
aa(lp205
S'CAAATC'
p206
aI780
aI87
aa(lp207
S'CAAATG'
p208
aI1009
aI101
aa(lp209
S'AATACT'
p210
aI1494
aI100
aa(lp211
S'AATCCG'
p212
aI323
aI47
aa(lp213
S'TATCTC'
p214
aI854
aI72
aa(lp215
S'CCGGCG'
p216
aI117
aI13
aa(lp217
S'GGCATG'
p218
aI343
aI43
aa(lp219
S'GGCATA'
p220
aI494
aI24
aa(lp221
S'GGCATC'
p222
aI300
aI44
aa(lp223
S'AATACG'
p224
aI788
aI68
aa(lp225
S'AATACA'
p226
aI1784
aI201
aa(lp227
S'AATACC'
p228
aI863
aI122
aa(lp229
S'GGCATT'
p230
aI574
aI54
aa(lp231
S'CGTCAG'
p232
aI266
aI31
aa(lp233
S'CTTGGT'
p234
aI562
aI64
aa(lp235
S'GAGCAC'
p236
aI332
aI30
aa(lp237
S'GAGCAA'
p238
aI656
aI42
aa(lp239
S'CATATC'
p240
aI879
aI101
aa(lp241
S'GAGCAG'
p242
aI413
aI35
aa(lp243
S'AGTAGT'
p244
aI910
aI55
aa(lp245
S'TCTCGC'
p246
aI300
aI36
aa(lp247
S'CGTGTC'
p248
aI189
aI15
aa(lp249
S'TCTCGA'
p250
aI587
aI106
aa(lp251
S'TCTCGG'
p252
aI287
aI52
aa(lp253
S'ACTGAG'
p254
aI437
aI38
aa(lp255
S'AGTAGA'
p256
aI789
aI68
aa(lp257
S'AGTAGG'
p258
aI425
aI17
aa(lp259
S'GAGCAT'
p260
aI457
aI47
aa(lp261
S'TTGAAC'
p262
aI865
aI69
aa(lp263
S'TTTGTT'
p264
aI2832
aI282
aa(lp265
S'GTGTCG'
p266
aI198
aI16
aa(lp267
S'TCGAAC'
p268
aI452
aI58
aa(lp269
S'TCGAAA'
p270
aI949
aI88
aa(lp271
S'GTGTCC'
p272
aI257
aI45
aa(lp273
S'TCGAAG'
p274
aI545
aI58
aa(lp275
S'GTGTCA'
p276
aI486
aI65
aa(lp277
S'CTTGCT'
p278
aI707
aI57
aa(lp279
S'AGACAC'
p280
aI417
aI51
aa(lp281
S'TCGGTC'
p282
aI200
aI29
aa(lp283
S'GTGTCT'
p284
aI449
aI52
aa(lp285
S'CATGCC'
p286
aI334
aI37
aa(lp287
S'TCGAAT'
p288
aI661
aI83
aa(lp289
S'CTTGCG'
p290
aI384
aI46
aa(lp291
S'CTTGCA'
p292
aI748
aI97
aa(lp293
S'CTTGCC'
p294
aI444
aI51
aa(lp295
S'CGAAAG'
p296
aI600
aI53
aa(lp297
S'CGAAAA'
p298
aI1472
aI168
aa(lp299
S'CGAAAC'
p300
aI521
aI69
aa(lp301
S'AATCAT'
p302
aI1385
aI158
aa(lp303
S'ACAGTG'
p304
aI589
aI56
aa(lp305
S'CACGGC'
p306
aI205
aI25
aa(lp307
S'AAATGA'
p308
aI2145
aI152
aa(lp309
S'AAATGG'
p310
aI1188
aI108
aa(lp311
S'CACGGG'
p312
aI128
aI4
aa(lp313
S'ACAGTA'
p314
aI965
aI84
aa(lp315
S'CGAAAT'
p316
aI806
aI58
aa(lp317
S'ACAGTT'
p318
aI842
aI75
aa(lp319
S'AATCAG'
p320
aI744
aI86
aa(lp321
S'AATCAA'
p322
aI1654
aI175
aa(lp323
S'AAATGT'
p324
aI1661
aI134
aa(lp325
S'AATCAC'
p326
aI801
aI77
aa(lp327
S'GGGTCT'
p328
aI211
aI26
aa(lp329
S'TCTAGT'
p330
aI640
aI68
aa(lp331
S'TTGCCG'
p332
aI378
aI41
aa(lp333
S'ATAGGG'
p334
aI394
aI39
aa(lp335
S'TTGCCA'
p336
aI715
aI84
aa(lp337
S'GGGTAT'
p338
aI396
aI52
aa(lp339
S'ACTGCC'
p340
aI360
aI26
aa(lp341
S'ATACGA'
p342
aI703
aI100
aa(lp343
S'TCTAGG'
p344
aI308
aI28
aa(lp345
S'GGGTAA'
p346
aI694
aI233
aa(lp347
S'TCTAGA'
p348
aI503
aI49
aa(lp349
S'GGGTAG'
p350
aI255
aI24
aa(lp351
S'TCTAGC'
p352
aI430
aI45
aa(lp353
S'ATACGG'
p354
aI503
aI65
aa(lp355
S'TTTGTG'
p356
aI1057
aI143
aa(lp357
S'TGGGCC'
p358
aI197
aI26
aa(lp359
S'AGATGT'
p360
aI722
aI58
aa(lp361
S'TCGCCC'
p362
aI201
aI20
aa(lp363
S'TCGCCA'
p364
aI309
aI30
aa(lp365
S'GGGTCG'
p366
aI98
aI13
aa(lp367
S'TCGCCG'
p368
aI194
aI15
aa(lp369
S'GGTAAT'
p370
aI859
aI104
aa(lp371
S'ACCCAT'
p372
aI491
aI65
aa(lp373
S'GTCAAC'
p374
aI413
aI62
aa(lp375
S'CTCACC'
p376
aI333
aI33
aa(lp377
S'ACCCAC'
p378
aI364
aI30
aa(lp379
S'GGTAAC'
p380
aI516
aI86
aa(lp381
S'ACCCAA'
p382
aI561
aI96
aa(lp383
S'GGTAAA'
p384
aI1058
aI112
aa(lp385
S'ACCCAG'
p386
aI307
aI48
aa(lp387
S'AGATGA'
p388
aI1194
aI215
aa(lp389
S'TCGCCT'
p390
aI325
aI21
aa(lp391
S'AGATGC'
p392
aI518
aI32
aa(lp393
S'GCTCAC'
p394
aI287
aI20
aa(lp395
S'CCCCAT'
p396
aI311
aI25
aa(lp397
S'TTGGGT'
p398
aI563
aI107
aa(lp399
S'CACTAG'
p400
aI395
aI37
aa(lp401
S'CACTAA'
p402
aI782
aI63
aa(lp403
S'CACTAC'
p404
aI511
aI28
aa(lp405
S'CCCCAA'
p406
aI312
aI33
aa(lp407
S'CCCCAC'
p408
aI243
aI30
aa(lp409
S'TCACCG'
p410
aI274
aI23
aa(lp411
S'CCCCAG'
p412
aI169
aI18
aa(lp413
S'CACTAT'
p414
aI804
aI69
aa(lp415
S'TTGGGG'
p416
aI253
aI34
aa(lp417
S'CCGTCC'
p418
aI174
aI12
aa(lp419
S'TTGGGA'
p420
aI514
aI64
aa(lp421
S'TTGGGC'
p422
aI334
aI24
aa(lp423
S'CTCGAG'
p424
aI488
aI108
aa(lp425
S'TGCAGA'
p426
aI694
aI80
aa(lp427
S'TTTCTG'
p428
aI1386
aI92
aa(lp429
S'TGCAGC'
p430
aI460
aI42
aa(lp431
S'TTTCTA'
p432
aI1935
aI153
aa(lp433
S'TGCCTA'
p434
aI406
aI29
aa(lp435
S'TGCAGG'
p436
aI366
aI36
aa(lp437
S'ACGCCT'
p438
aI268
aI23
aa(lp439
S'GTGGCC'
p440
aI215
aI16
aa(lp441
S'TCAGAC'
p442
aI359
aI45
aa(lp443
S'TTTCTT'
p444
aI4770
aI402
aa(lp445
S'TGCCTT'
p446
aI805
aI57
aa(lp447
S'TGCAGT'
p448
aI605
aI46
aa(lp449
S'TAGTGC'
p450
aI475
aI26
aa(lp451
S'GTGAGC'
p452
aI282
aI28
aa(lp453
S'AAGGAA'
p454
aI2088
aI154
aa(lp455
S'AAGGAC'
p456
aI549
aI36
aa(lp457
S'AAGGAG'
p458
aI798
aI83
aa(lp459
S'ATATGC'
p460
aI1031
aI95
aa(lp461
S'ATATGA'
p462
aI1707
aI202
aa(lp463
S'ATATGG'
p464
aI799
aI62
aa(lp465
S'GAGTTC'
p466
aI423
aI55
aa(lp467
S'AAGGAT'
p468
aI1010
aI120
aa(lp469
S'AGGGCC'
p470
aI193
aI20
aa(lp471
S'ATATGT'
p472
aI2186
aI215
aa(lp473
S'GGTCCC'
p474
aI156
aI13
aa(lp475
S'TCCGGT'
p476
aI256
aI25
aa(lp477
S'GGTCCA'
p478
aI219
aI32
aa(lp479
S'GCCCAA'
p480
aI334
aI30
aa(lp481
S'GGTCCG'
p482
aI132
aI6
aa(lp483
S'AGGTCT'
p484
aI377
aI40
aa(lp485
S'TGTGTC'
p486
aI436
aI62
aa(lp487
S'AGACCC'
p488
aI227
aI27
aa(lp489
S'AGACCA'
p490
aI468
aI53
aa(lp491
S'CTTCGA'
p492
aI556
aI60
aa(lp493
S'ACGTGA'
p494
aI469
aI82
aa(lp495
S'ATGCAA'
p496
aI1200
aI160
aa(lp497
S'GCCCAT'
p498
aI325
aI29
aa(lp499
S'AGGTCA'
p500
aI434
aI45
aa(lp501
S'AGGTCG'
p502
aI193
aI28
aa(lp503
S'GGTCCT'
p504
aI202
aI15
aa(lp505
S'TCCGGA'
p506
aI222
aI19
aa(lp507
S'CTTAGC'
p508
aI400
aI25
aa(lp509
S'TCTTGA'
p510
aI1095
aI78
aa(lp511
S'CTTAGA'
p512
aI569
aI61
aa(lp513
S'CCACTC'
p514
aI314
aI19
aa(lp515
S'CTTAGG'
p516
aI295
aI27
aa(lp517
S'ATTGTC'
p518
aI811
aI78
aa(lp519
S'ATTGTA'
p520
aI1383
aI103
aa(lp521
S'GCCTTT'
p522
aI906
aI69
aa(lp523
S'ATTTTG'
p524
aI2028
aI150
aa(lp525
S'CGCTAA'
p526
aI401
aI16
aa(lp527
S'ATTTTA'
p528
aI2921
aI190
aa(lp529
S'GAGGTA'
p530
aI447
aI40
aa(lp531
S'ATTTTC'
p532
aI2623
aI201
aa(lp533
S'GATTTG'
p534
aI779
aI80
aa(lp535
S'TAGCAG'
p536
aI523
aI17
aa(lp537
S'GATACT'
p538
aI647
aI59
aa(lp539
S'TAGCAC'
p540
aI474
aI33
aa(lp541
S'TAGCAA'
p542
aI878
aI51
aa(lp543
S'TAAATA'
p544
aI3863
aI486
aa(lp545
S'ATTTTT'
p546
aI5911
aI522
aa(lp547
S'GCCTTG'
p548
aI437
aI28
aa(lp549
S'GTGGGG'
p550
aI215
aI30
aa(lp551
S'GCCTTA'
p552
aI432
aI37
aa(lp553
S'CGCTAT'
p554
aI450
aI29
aa(lp555
S'GATACG'
p556
aI355
aI35
aa(lp557
S'TAGCAT'
p558
aI774
aI80
aa(lp559
S'CATTGC'
p560
aI620
aI58
aa(lp561
S'GATACC'
p562
aI389
aI48
aa(lp563
S'GATACA'
p564
aI762
aI88
aa(lp565
S'TGAGCT'
p566
aI509
aI67
aa(lp567
S'GTCACC'
p568
aI346
aI56
aa(lp569
S'GATCAT'
p570
aI606
aI89
aa(lp571
S'AAGACA'
p572
aI1076
aI101
aa(lp573
S'AAGACC'
p574
aI477
aI32
aa(lp575
S'ACAATG'
p576
aI955
aI100
aa(lp577
S'AAGACG'
p578
aI494
aI27
aa(lp579
S'CCACTT'
p580
aI605
aI36
aa(lp581
S'TGAGCG'
p582
aI252
aI11
aa(lp583
S'ACGCTG'
p584
aI266
aI5
aa(lp585
S'TGAGCA'
p586
aI593
aI61
aa(lp587
S'GATCAA'
p588
aI743
aI100
aa(lp589
S'AAGACT'
p590
aI678
aI51
aa(lp591
S'ACCACG'
p592
aI261
aI29
aa(lp593
S'GCGGTA'
p594
aI285
aI18
aa(lp595
S'GCGGTG'
p596
aI243
aI16
aa(lp597
S'CTATCG'
p598
aI371
aI35
aa(lp599
S'CGGTGT'
p600
aI326
aI44
aa(lp601
S'TCGTTA'
p602
aI722
aI66
aa(lp603
S'TCGTTC'
p604
aI500
aI60
aa(lp605
S'CGCTAG'
p606
aI210
aI9
aa(lp607
S'ACTTGT'
p608
aI750
aI42
aa(lp609
S'GCGGTT'
p610
aI297
aI25
aa(lp611
S'ACTTGC'
p612
aI623
aI67
aa(lp613
S'ACCACC'
p614
aI464
aI76
aa(lp615
S'ACTTGA'
p616
aI810
aI59
aa(lp617
S'CGGTGG'
p618
aI222
aI36
aa(lp619
S'TCGTTT'
p620
aI1065
aI171
aa(lp621
S'CGGTGA'
p622
aI264
aI20
aa(lp623
S'CGGTGC'
p624
aI179
aI19
aa(lp625
S'GCCTTC'
p626
aI430
aI19
aa(lp627
S'TTCCTA'
p628
aI961
aI84
aa(lp629
S'TAGACT'
p630
aI390
aI33
aa(lp631
S'TTCCTC'
p632
aI978
aI74
aa(lp633
S'ACTGAC'
p634
aI357
aI45
aa(lp635
S'CTTCCG'
p636
aI385
aI31
aa(lp637
S'TTCCTG'
p638
aI717
aI43
aa(lp639
S'TCCTTT'
p640
aI1932
aI171
aa(lp641
S'CAGTTG'
p642
aI544
aI47
aa(lp643
S'TAGACG'
p644
aI314
aI23
aa(lp645
S'TTCCTT'
p646
aI2007
aI149
aa(lp647
S'TTCAAC'
p648
aI1074
aI114
aa(lp649
S'TAGACA'
p650
aI634
aI64
aa(lp651
S'TCCTTG'
p652
aI726
aI85
aa(lp653
S'TCCTTA'
p654
aI835
aI82
aa(lp655
S'TCCTTC'
p656
aI930
aI50
aa(lp657
S'ATCTCT'
p658
aI930
aI65
aa(lp659
S'ACCGTT'
p660
aI516
aI47
aa(lp661
S'TGGCGC'
p662
aI270
aI26
aa(lp663
S'CTTCGG'
p664
aI355
aI42
aa(lp665
S'TGGCGA'
p666
aI296
aI30
aa(lp667
S'GGCCAT'
p668
aI295
aI14
aa(lp669
S'ATCTCG'
p670
aI391
aI58
aa(lp671
S'ATCTCA'
p672
aI898
aI118
aa(lp673
S'ATCTCC'
p674
aI485
aI64
aa(lp675
S'GGCCAA'
p676
aI368
aI30
aa(lp677
S'ACGGAG'
p678
aI282
aI30
aa(lp679
S'GGCCAC'
p680
aI219
aI11
aa(lp681
S'AGGTAG'
p682
aI434
aI38
aa(lp683
S'ACCGTA'
p684
aI441
aI57
aa(lp685
S'TGGCGT'
p686
aI343
aI35
aa(lp687
S'ACCGTC'
p688
aI262
aI24
aa(lp689
S'ACCGAC'
p690
aI170
aI14
aa(lp691
S'AGATTA'
p692
aI989
aI73
aa(lp693
S'GGCAGT'
p694
aI351
aI35
aa(lp695
S'CCATAA'
p696
aI792
aI83
aa(lp697
S'CAAAGG'
p698
aI755
aI80
aa(lp699
S'CCATAC'
p700
aI497
aI47
aa(lp701
S'CAAAGA'
p702
aI1300
aI128
aa(lp703
S'AGATTC'
p704
aI749
aI102
aa(lp705
S'CAAAGC'
p706
aI631
aI35
aa(lp707
S'CAACGT'
p708
aI395
aI30
aa(lp709
S'GGCAGA'
p710
aI389
aI24
aa(lp711
S'GGCAGC'
p712
aI299
aI9
aa(lp713
S'TAAGTT'
p714
aI1087
aI89
aa(lp715
S'GGCAGG'
p716
aI241
aI19
aa(lp717
S'CAACGC'
p718
aI289
aI29
aa(lp719
S'GCACTA'
p720
aI476
aI30
aa(lp721
S'CAACGA'
p722
aI510
aI61
aa(lp723
S'GCACTC'
p724
aI283
aI20
aa(lp725
S'CCATAT'
p726
aI868
aI71
aa(lp727
S'AACGTG'
p728
aI455
aI54
aa(lp729
S'GGGGGT'
p730
aI167
aI26
aa(lp731
S'TACGCT'
p732
aI435
aI27
aa(lp733
S'GAAACC'
p734
aI532
aI47
aa(lp735
S'CGATCT'
p736
aI347
aI48
aa(lp737
S'CTCTAG'
p738
aI356
aI33
aa(lp739
S'TGAGCC'
p740
aI282
aI35
aa(lp741
S'CTCTAA'
p742
aI649
aI55
aa(lp743
S'CTCTAC'
p744
aI407
aI23
aa(lp745
S'GGGGGG'
p746
aI214
aI10
aa(lp747
S'TACGCA'
p748
aI507
aI36
aa(lp749
S'CGATCA'
p750
aI319
aI29
aa(lp751
S'GGGGGC'
p752
aI123
aI15
aa(lp753
S'CGATCG'
p754
aI178
aI18
aa(lp755
S'GGGGGA'
p756
aI214
aI8
aa(lp757
S'TACGCG'
p758
aI232
aI38
aa(lp759
S'CTCTAT'
p760
aI873
aI63
aa(lp761
S'CCCCGC'
p762
aI178
aI34
aa(lp763
S'CAGACC'
p764
aI228
aI22
aa(lp765
S'CAGACA'
p766
aI480
aI58
aa(lp767
S'CAGACG'
p768
aI211
aI13
aa(lp769
S'TAGTTG'
p770
aI863
aI89
aa(lp771
S'GCTAAT'
p772
aI624
aI37
aa(lp773
S'TAGTTC'
p774
aI697
aI49
aa(lp775
S'TAGTTA'
p776
aI1073
aI86
aa(lp777
S'CAGACT'
p778
aI337
aI39
aa(lp779
S'GCTAAG'
p780
aI379
aI18
aa(lp781
S'TAGTTT'
p782
aI1599
aI127
aa(lp783
S'GCTAAC'
p784
aI357
aI24
aa(lp785
S'TCAGGG'
p786
aI281
aI50
aa(lp787
S'GCTAAA'
p788
aI906
aI63
aa(lp789
S'TGCATT'
p790
aI1155
aI142
aa(lp791
S'TGCTGC'
p792
aI542
aI30
aa(lp793
S'AACCCT'
p794
aI510
aI83
aa(lp795
S'GTCCAC'
p796
aI216
aI14
aa(lp797
S'AACCCC'
p798
aI297
aI35
aa(lp799
S'GGAGAG'
p800
aI443
aI45
aa(lp801
S'AACCCA'
p802
aI492
aI61
aa(lp803
S'TGCATA'
p804
aI1032
aI120
aa(lp805
S'TGCATC'
p806
aI487
aI46
aa(lp807
S'CATGAC'
p808
aI392
aI49
aa(lp809
S'AGAATA'
p810
aI1936
aI200
aa(lp811
S'ACGTAA'
p812
aI774
aI82
aa(lp813
S'AACTGG'
p814
aI523
aI55
aa(lp815
S'AACTGA'
p816
aI819
aI73
aa(lp817
S'AGTTTA'
p818
aI1208
aI93
aa(lp819
S'CCCAGA'
p820
aI335
aI35
aa(lp821
S'CCCAGC'
p822
aI214
aI19
aa(lp823
S'AGAATC'
p824
aI731
aI81
aa(lp825
S'CAGTCC'
p826
aI217
aI18
aa(lp827
S'CCCAGG'
p828
aI186
aI27
aa(lp829
S'AACTGT'
p830
aI896
aI68
aa(lp831
S'AGTTTT'
p832
aI2103
aI140
aa(lp833
S'CTACAT'
p834
aI850
aI90
aa(lp835
S'CGAGTC'
p836
aI141
aI23
aa(lp837
S'CCCAGT'
p838
aI259
aI25
aa(lp839
S'CGCATA'
p840
aI454
aI42
aa(lp841
S'ATACTG'
p842
aI883
aI61
aa(lp843
S'CGCATC'
p844
aI303
aI20
aa(lp845
S'ATACTA'
p846
aI1555
aI179
aa(lp847
S'ATACTC'
p848
aI640
aI50
aa(lp849
S'CGCATG'
p850
aI267
aI34
aa(lp851
S'AGGCCA'
p852
aI369
aI35
aa(lp853
S'ATACTT'
p854
aI1518
aI95
aa(lp855
S'CGCATT'
p856
aI519
aI29
aa(lp857
S'AGGCCC'
p858
aI177
aI13
aa(lp859
S'GCTCCG'
p860
aI152
aI15
aa(lp861
S'TATTGT'
p862
aI1893
aI243
aa(lp863
S'GCTCCC'
p864
aI243
aI27
aa(lp865
S'GCTCCA'
p866
aI262
aI23
aa(lp867
S'CCTACT'
p868
aI429
aI17
aa(lp869
S'TGTACT'
p870
aI848
aI72
aa(lp871
S'TTTAGT'
p872
aI1405
aI108
aa(lp873
S'TATTGG'
p874
aI815
aI97
aa(lp875
S'GCTCCT'
p876
aI299
aI24
aa(lp877
S'AGGCCG'
p878
aI168
aI10
aa(lp879
S'TATTGA'
p880
aI1546
aI150
aa(lp881
S'TTTAGG'
p882
aI808
aI83
aa(lp883
S'TGTACG'
p884
aI487
aI52
aa(lp885
S'CCTACG'
p886
aI206
aI10
aa(lp887
S'TGTACA'
p888
aI963
aI84
aa(lp889
S'CCTACA'
p890
aI440
aI32
aa(lp891
S'TGTACC'
p892
aI383
aI21
aa(lp893
S'TTTAGA'
p894
aI1221
aI122
aa(lp895
S'TTCGCG'
p896
aI349
aI88
aa(lp897
S'TTCGCA'
p898
aI461
aI34
aa(lp899
S'CTGCGC'
p900
aI306
aI27
aa(lp901
S'AGTATC'
p902
aI657
aI61
aa(lp903
S'GACTAA'
p904
aI531
aI74
aa(lp905
S'AGTATA'
p906
aI1736
aI164
aa(lp907
S'TTTGGG'
p908
aI637
aI98
aa(lp909
S'AGTATG'
p910
aI775
aI61
aa(lp911
S'TTTGGA'
p912
aI948
aI72
aa(lp913
S'GACTAG'
p914
aI251
aI13
aa(lp915
S'TCCAGC'
p916
aI297
aI13
aa(lp917
S'TTCGCT'
p918
aI530
aI39
aa(lp919
S'TTTGGT'
p920
aI1146
aI132
aa(lp921
S'GTCAGC'
p922
aI238
aI23
aa(lp923
S'GACTAT'
p924
aI610
aI72
aa(lp925
S'AGTTTG'
p926
aI841
aI70
aa(lp927
S'AGTATT'
p928
aI1386
aI87
aa(lp929
S'TTACTC'
p930
aI737
aI48
aa(lp931
S'TTACTA'
p932
aI1355
aI127
aa(lp933
S'TTACTG'
p934
aI1058
aI135
aa(lp935
S'ACCTTG'
p936
aI470
aI33
aa(lp937
S'ACCTTC'
p938
aI615
aI58
aa(lp939
S'ACCTTA'
p940
aI706
aI80
aa(lp941
S'TTACTT'
p942
aI1818
aI107
aa(lp943
S'ACGCTT'
p944
aI479
aI27
aa(lp945
S'ACCTTT'
p946
aI1153
aI96
aa(lp947
S'ACAGGG'
p948
aI316
aI34
aa(lp949
S'CTGGGA'
p950
aI261
aI27
aa(lp951
S'CTGGGC'
p952
aI207
aI21
aa(lp953
S'ACAGGC'
p954
aI309
aI22
aa(lp955
S'TTATAT'
p956
aI4176
aI482
aa(lp957
S'CTGGGG'
p958
aI170
aI22
aa(lp959
S'AGGACG'
p960
aI218
aI9
aa(lp961
S'GCAGCT'
p962
aI427
aI29
aa(lp963
S'CAGGAA'
p964
aI728
aI48
aa(lp965
S'TCGCTT'
p966
aI520
aI43
aa(lp967
S'CAGGAG'
p968
aI295
aI30
aa(lp969
S'AGGACA'
p970
aI524
aI52
aa(lp971
S'AGGCCT'
p972
aI265
aI9
aa(lp973
S'TTATAC'
p974
aI1410
aI159
aa(lp975
S'TTATAA'
p976
aI2548
aI230
aa(lp977
S'CTGGGT'
p978
aI254
aI52
aa(lp979
S'TTATAG'
p980
aI1287
aI148
aa(lp981
S'TCGCTG'
p982
aI329
aI44
aa(lp983
S'GAGTTG'
p984
aI449
aI22
aa(lp985
S'GCAGCG'
p986
aI276
aI18
aa(lp987
S'AGGACT'
p988
aI364
aI31
aa(lp989
S'GCAGCA'
p990
aI508
aI24
aa(lp991
S'GGAGGG'
p992
aI253
aI18
aa(lp993
S'TCGCTA'
p994
aI349
aI23
aa(lp995
S'CAGGAT'
p996
aI445
aI65
aa(lp997
S'CCTCAG'
p998
aI298
aI24
aa(lp999
S'CCTCAA'
p1000
aI639
aI70
aa(lp1001
S'CCTCAC'
p1002
aI356
aI29
aa(lp1003
S'TATGTT'
p1004
aI1600
aI172
aa(lp1005
S'ATGGGC'
p1006
aI284
aI26
aa(lp1007
S'TCTTTG'
p1008
aI1196
aI96
aa(lp1009
S'ATGGGA'
p1010
aI424
aI41
aa(lp1011
S'TCTTTA'
p1012
aI1701
aI134
aa(lp1013
S'ATGGGG'
p1014
aI252
aI21
aa(lp1015
S'TCTTTC'
p1016
aI1704
aI90
aa(lp1017
S'CCTCAT'
p1018
aI529
aI49
aa(lp1019
S'GGGTTA'
p1020
aI322
aI37
aa(lp1021
S'TATGTG'
p1022
aI966
aI61
aa(lp1023
S'TATGTA'
p1024
aI2314
aI254
aa(lp1025
S'ATGGGT'
p1026
aI476
aI63
aa(lp1027
S'TATGTC'
p1028
aI724
aI86
aa(lp1029
S'GAAAGA'
p1030
aI1826
aI116
aa(lp1031
S'ATCAAG'
p1032
aI883
aI77
aa(lp1033
S'CATGAT'
p1034
aI658
aI77
aa(lp1035
S'GATGGT'
p1036
aI518
aI61
aa(lp1037
S'GAAAGG'
p1038
aI981
aI83
aa(lp1039
S'ATCAAA'
p1040
aI1890
aI221
aa(lp1041
S'TCGTGC'
p1042
aI291
aI31
aa(lp1043
S'CATGAG'
p1044
aI382
aI27
aa(lp1045
S'ATCAAT'
p1046
aI1500
aI194
aa(lp1047
S'TCAAAC'
p1048
aI931
aI104
aa(lp1049
S'GAAAGT'
p1050
aI1163
aI96
aa(lp1051
S'CATGAA'
p1052
aI931
aI85
aa(lp1053
S'GTAGCG'
p1054
aI321
aI32
aa(lp1055
S'CAAGTT'
p1056
aI862
aI48
aa(lp1057
S'GCGGCT'
p1058
aI318
aI95
aa(lp1059
S'GCTTTA'
p1060
aI835
aI56
aa(lp1061
S'GTAGCA'
p1062
aI512
aI28
aa(lp1063
S'TTTCTC'
p1064
aI1922
aI153
aa(lp1065
S'GCTTTT'
p1066
aI1777
aI160
aa(lp1067
S'CAAGTG'
p1068
aI539
aI47
aa(lp1069
S'GTAGCT'
p1070
aI389
aI8
aa(lp1071
S'GCGGCC'
p1072
aI185
aI16
aa(lp1073
S'CAAGTC'
p1074
aI356
aI36
aa(lp1075
S'GCGGCA'
p1076
aI266
aI25
aa(lp1077
S'CAAGTA'
p1078
aI873
aI82
aa(lp1079
S'ATTGCT'
p1080
aI951
aI57
aa(lp1081
S'CGTACG'
p1082
aI268
aI31
aa(lp1083
S'ACCCTC'
p1084
aI308
aI32
aa(lp1085
S'TAATCG'
p1086
aI517
aI48
aa(lp1087
S'GGTCTT'
p1088
aI397
aI30
aa(lp1089
S'TAATCA'
p1090
aI1201
aI107
aa(lp1091
S'TAATCC'
p1092
aI500
aI49
aa(lp1093
S'GGGTTT'
p1094
aI560
aI60
aa(lp1095
S'CGGCCC'
p1096
aI176
aI20
aa(lp1097
S'AAAATT'
p1098
aI4077
aI354
aa(lp1099
S'CGGCCG'
p1100
aI141
aI18
aa(lp1101
S'ATGAAG'
p1102
aI1182
aI140
aa(lp1103
S'GGTCTG'
p1104
aI211
aI18
aa(lp1105
S'TAATCT'
p1106
aI1037
aI77
aa(lp1107
S'TGCGAC'
p1108
aI254
aI40
aa(lp1109
S'GGTCTC'
p1110
aI244
aI18
aa(lp1111
S'GGAGGC'
p1112
aI183
aI12
aa(lp1113
S'GGTCTA'
p1114
aI345
aI68
aa(lp1115
S'AAAATG'
p1116
aI2580
aI182
aa(lp1117
S'AAAATC'
p1118
aI1970
aI176
aa(lp1119
S'AAAATA'
p1120
aI5106
aI326
aa(lp1121
S'TCGTCA'
p1122
aI451
aI49
aa(lp1123
S'CTAACC'
p1124
aI325
aI15
aa(lp1125
S'TTCAGA'
p1126
aI845
aI63
aa(lp1127
S'TTCAGG'
p1128
aI529
aI50
aa(lp1129
S'GAACAT'
p1130
aI816
aI45
aa(lp1131
S'TCGTCG'
p1132
aI182
aI21
aa(lp1133
S'TTTAGC'
p1134
aI869
aI65
aa(lp1135
S'GAACAA'
p1136
aI1295
aI116
aa(lp1137
S'ATCCCG'
p1138
aI228
aI22
aa(lp1139
S'GAACAC'
p1140
aI468
aI31
aa(lp1141
S'TCGTCT'
p1142
aI391
aI20
aa(lp1143
S'GAACAG'
p1144
aI629
aI56
aa(lp1145
S'ATCCCA'
p1146
aI451
aI43
aa(lp1147
S'AACGGA'
p1148
aI579
aI75
aa(lp1149
S'CACCAC'
p1150
aI457
aI49
aa(lp1151
S'CACCAA'
p1152
aI687
aI93
aa(lp1153
S'CACCAG'
p1154
aI295
aI13
aa(lp1155
S'CCACCG'
p1156
aI222
aI43
aa(lp1157
S'AACATT'
p1158
aI1466
aI121
aa(lp1159
S'ATTGCG'
p1160
aI473
aI35
aa(lp1161
S'TCCGTC'
p1162
aI273
aI36
aa(lp1163
S'TCCGTA'
p1164
aI438
aI55
aa(lp1165
S'ACCAGA'
p1166
aI423
aI27
aa(lp1167
S'AAATGC'
p1168
aI1283
aI120
aa(lp1169
S'ACGCGA'
p1170
aI286
aI64
aa(lp1171
S'CACCAT'
p1172
aI582
aI43
aa(lp1173
S'TCCGTT'
p1174
aI523
aI68
aa(lp1175
S'AACATA'
p1176
aI1564
aI148
aa(lp1177
S'AACATC'
p1178
aI810
aI68
aa(lp1179
S'TCAGCA'
p1180
aI563
aI62
aa(lp1181
S'GCACGG'
p1182
aI226
aI26
aa(lp1183
S'GTCAGA'
p1184
aI445
aI61
aa(lp1185
S'GCACGA'
p1186
aI277
aI28
aa(lp1187
S'GTCAGG'
p1188
aI243
aI35
aa(lp1189
S'GCACGC'
p1190
aI226
aI18
aa(lp1191
S'CAGTCA'
p1192
aI493
aI51
aa(lp1193
S'AACAAC'
p1194
aI1165
aI117
aa(lp1195
S'GCAAGC'
p1196
aI409
aI32
aa(lp1197
S'GCACGT'
p1198
aI299
aI35
aa(lp1199
S'GCAAGA'
p1200
aI842
aI77
aa(lp1201
S'TAAAGC'
p1202
aI851
aI51
aa(lp1203
S'TCAGCT'
p1204
aI567
aI57
aa(lp1205
S'GTCAGT'
p1206
aI409
aI39
aa(lp1207
S'GTATAC'
p1208
aI1068
aI109
aa(lp1209
S'TTCCGT'
p1210
aI661
aI75
aa(lp1211
S'GTATAA'
p1212
aI1511
aI171
aa(lp1213
S'GTATAG'
p1214
aI705
aI75
aa(lp1215
S'CCGGAA'
p1216
aI414
aI43
aa(lp1217
S'CCGGAC'
p1218
aI140
aI13
aa(lp1219
S'CCGGAG'
p1220
aI177
aI13
aa(lp1221
S'TATCAT'
p1222
aI1635
aI192
aa(lp1223
S'TGACGT'
p1224
aI445
aI72
aa(lp1225
S'TTCCGG'
p1226
aI352
aI42
aa(lp1227
S'TTCCGA'
p1228
aI484
aI68
aa(lp1229
S'TTCCGC'
p1230
aI463
aI51
aa(lp1231
S'GTATAT'
p1232
aI2471
aI253
aa(lp1233
S'TATCAC'
p1234
aI828
aI82
aa(lp1235
S'TATCAA'
p1236
aI1781
aI240
aa(lp1237
S'TATCAG'
p1238
aI757
aI89
aa(lp1239
S'CCGGAT'
p1240
aI223
aI23
aa(lp1241
S'CTCTTC'
p1242
aI1035
aI74
aa(lp1243
S'TGTTAT'
p1244
aI1476
aI117
aa(lp1245
S'CTCTTA'
p1246
aI752
aI47
aa(lp1247
S'CTCTTG'
p1248
aI753
aI58
aa(lp1249
S'AGGGCT'
p1250
aI327
aI31
aa(lp1251
S'TACGTA'
p1252
aI1014
aI110
aa(lp1253
S'TACGTC'
p1254
aI332
aI23
aa(lp1255
S'TCTGGT'
p1256
aI434
aI26
aa(lp1257
S'CGCGAT'
p1258
aI233
aI42
aa(lp1259
S'TACGTG'
p1260
aI433
aI47
aa(lp1261
S'TGTTAG'
p1262
aI681
aI79
aa(lp1263
S'GGTTTC'
p1264
aI544
aI46
aa(lp1265
S'CTCGTG'
p1266
aI226
aI29
aa(lp1267
S'CTCTTT'
p1268
aI1695
aI109
aa(lp1269
S'TGTTAA'
p1270
aI1197
aI102
aa(lp1271
S'CGCGAA'
p1272
aI333
aI69
aa(lp1273
S'GCCCTG'
p1274
aI233
aI41
aa(lp1275
S'CGCGAC'
p1276
aI164
aI32
aa(lp1277
S'CCCTGC'
p1278
aI209
aI29
aa(lp1279
S'TCTGGC'
p1280
aI374
aI35
aa(lp1281
S'TACGTT'
p1282
aI794
aI85
aa(lp1283
S'TCTGGA'
p1284
aI470
aI45
aa(lp1285
S'GGCGGC'
p1286
aI257
aI63
aa(lp1287
S'AGTCGT'
p1288
aI300
aI40
aa(lp1289
S'TTACCT'
p1290
aI821
aI58
aa(lp1291
S'CTCCAT'
p1292
aI520
aI68
aa(lp1293
S'AATGCG'
p1294
aI453
aI37
aa(lp1295
S'TACGGC'
p1296
aI276
aI34
aa(lp1297
S'TATGCC'
p1298
aI430
aI36
aa(lp1299
S'TTACCG'
p1300
aI433
aI43
aa(lp1301
S'CTCCAC'
p1302
aI396
aI51
aa(lp1303
S'CTCCAA'
p1304
aI478
aI45
aa(lp1305
S'TTACCC'
p1306
aI831
aI266
aa(lp1307
S'AGTCGA'
p1308
aI299
aI37
aa(lp1309
S'TTACCA'
p1310
aI892
aI65
aa(lp1311
S'AGTCGC'
p1312
aI240
aI34
aa(lp1313
S'CCCACC'
p1314
aI260
aI31
aa(lp1315
S'AATGCC'
p1316
aI575
aI51
aa(lp1317
S'GTACCG'
p1318
aI233
aI28
aa(lp1319
S'CCGACT'
p1320
aI195
aI12
aa(lp1321
S'GCCTAC'
p1322
aI241
aI8
aa(lp1323
S'GCCTAA'
p1324
aI339
aI22
aa(lp1325
S'CCGAGG'
p1326
aI151
aI15
aa(lp1327
S'GCCTAG'
p1328
aI201
aI9
aa(lp1329
S'CCGACA'
p1330
aI200
aI27
aa(lp1331
S'GATATC'
p1332
aI791
aI105
aa(lp1333
S'CCGACC'
p1334
aI120
aI10
aa(lp1335
S'CCGACG'
p1336
aI118
aI2
aa(lp1337
S'AAGCTC'
p1338
aI471
aI34
aa(lp1339
S'GCCTAT'
p1340
aI412
aI36
aa(lp1341
S'TGACGG'
p1342
aI274
aI32
aa(lp1343
S'ACGCTC'
p1344
aI250
aI18
aa(lp1345
S'ACGCGG'
p1346
aI145
aI14
aa(lp1347
S'AGGGCG'
p1348
aI197
aI18
aa(lp1349
S'CTCGTT'
p1350
aI481
aI53
aa(lp1351
S'CCCGAA'
p1352
aI306
aI42
aa(lp1353
S'CGCACA'
p1354
aI386
aI36
aa(lp1355
S'ATACAC'
p1356
aI989
aI88
aa(lp1357
S'CGCACC'
p1358
aI201
aI24
aa(lp1359
S'ATACAA'
p1360
aI1875
aI255
aa(lp1361
S'ACTGCT'
p1362
aI615
aI52
aa(lp1363
S'GGGTCA'
p1364
aI269
aI55
aa(lp1365
S'CGCACG'
p1366
aI194
aI25
aa(lp1367
S'GGGTCC'
p1368
aI177
aI25
aa(lp1369
S'CTCACT'
p1370
aI553
aI42
aa(lp1371
S'TTTGTA'
p1372
aI1846
aI183
aa(lp1373
S'ACTGCA'
p1374
aI608
aI49
aa(lp1375
S'TTTGTC'
p1376
aI955
aI76
aa(lp1377
S'TATCTG'
p1378
aI778
aI70
aa(lp1379
S'CGCACT'
p1380
aI280
aI17
aa(lp1381
S'ATACAT'
p1382
aI2123
aI210
aa(lp1383
S'ACTGCG'
p1384
aI337
aI25
aa(lp1385
S'CTTGAC'
p1386
aI452
aI40
aa(lp1387
S'CTCACA'
p1388
aI492
aI41
aa(lp1389
S'CTCACG'
p1390
aI219
aI13
aa(lp1391
S'CTGCAC'
p1392
aI334
aI23
aa(lp1393
S'GTGGGT'
p1394
aI320
aI41
aa(lp1395
S'GTGAGG'
p1396
aI304
aI31
aa(lp1397
S'GATTTT'
p1398
aI1863
aI164
aa(lp1399
S'ACAATT'
p1400
aI1602
aI147
aa(lp1401
S'ATGATC'
p1402
aI596
aI75
aa(lp1403
S'TAGTGA'
p1404
aI722
aI60
aa(lp1405
S'GTGAGA'
p1406
aI505
aI31
aa(lp1407
S'TCGACG'
p1408
aI162
aI9
aa(lp1409
S'TCGACA'
p1410
aI340
aI41
aa(lp1411
S'TAGAGG'
p1412
aI483
aI26
aa(lp1413
S'ACAATA'
p1414
aI1922
aI246
aa(lp1415
S'GTGAGT'
p1416
aI432
aI52
aa(lp1417
S'TAGTGT'
p1418
aI667
aI43
aa(lp1419
S'GTGGGA'
p1420
aI344
aI42
aa(lp1421
S'GATTTA'
p1422
aI1058
aI119
aa(lp1423
S'TCGACT'
p1424
aI315
aI35
aa(lp1425
S'CTGGTT'
p1426
aI499
aI54
aa(lp1427
S'TTGAGT'
p1428
aI731
aI66
aa(lp1429
S'CGAACG'
p1430
aI206
aI19
aa(lp1431
S'CGAACC'
p1432
aI302
aI62
aa(lp1433
S'CGAACA'
p1434
aI502
aI37
aa(lp1435
S'CTGGTG'
p1436
aI316
aI10
aa(lp1437
S'CTGGTA'
p1438
aI469
aI32
aa(lp1439
S'CTGGTC'
p1440
aI238
aI25
aa(lp1441
S'CGAACT'
p1442
aI405
aI48
aa(lp1443
S'TGCCGC'
p1444
aI262
aI21
aa(lp1445
S'TTGCAT'
p1446
aI1073
aI144
aa(lp1447
S'TTGCAG'
p1448
aI714
aI88
aa(lp1449
S'GAGGGA'
p1450
aI365
aI30
aa(lp1451
S'TTGCAC'
p1452
aI652
aI61
aa(lp1453
S'TTGCAA'
p1454
aI1103
aI99
aa(lp1455
S'AAGATC'
p1456
aI858
aI125
aa(lp1457
S'ACGTAC'
p1458
aI461
aI52
aa(lp1459
S'GAGGGC'
p1460
aI207
aI12
aa(lp1461
S'TCGCAT'
p1462
aI434
aI41
aa(lp1463
S'GTCGTG'
p1464
aI250
aI46
aa(lp1465
S'GTCGTA'
p1466
aI334
aI34
aa(lp1467
S'GTCGTC'
p1468
aI215
aI22
aa(lp1469
S'GCGTCC'
p1470
aI125
aI11
aa(lp1471
S'CCGTTT'
p1472
aI689
aI83
aa(lp1473
S'ACTGAT'
p1474
aI784
aI100
aa(lp1475
S'GTCGTT'
p1476
aI427
aI50
aa(lp1477
S'TCGCAG'
p1478
aI281
aI20
aa(lp1479
S'TCGCAA'
p1480
aI487
aI53
aa(lp1481
S'CCAAGC'
p1482
aI379
aI44
aa(lp1483
S'TCGCAC'
p1484
aI282
aI38
aa(lp1485
S'CCGTTG'
p1486
aI302
aI38
aa(lp1487
S'CCGTTA'
p1488
aI389
aI40
aa(lp1489
S'CCGTTC'
p1490
aI335
aI41
aa(lp1491
S'AATGCT'
p1492
aI878
aI65
aa(lp1493
S'GGTACG'
p1494
aI289
aI56
aa(lp1495
S'GGTACA'
p1496
aI439
aI33
aa(lp1497
S'GGTACC'
p1498
aI246
aI31
aa(lp1499
S'TATTTG'
p1500
aI1811
aI176
aa(lp1501
S'CCAGTT'
p1502
aI584
aI60
aa(lp1503
S'TTCAGC'
p1504
aI709
aI98
aa(lp1505
S'TATTTC'
p1506
aI2184
aI164
aa(lp1507
S'TATTTA'
p1508
aI3720
aI443
aa(lp1509
S'CCCCCT'
p1510
aI240
aI23
aa(lp1511
S'GGTACT'
p1512
aI384
aI45
aa(lp1513
S'TCCAGG'
p1514
aI282
aI42
aa(lp1515
S'TTGAGA'
p1516
aI959
aI65
aa(lp1517
S'AATGCA'
p1518
aI1226
aI150
aa(lp1519
S'CCCCCC'
p1520
aI273
aI14
aa(lp1521
S'CCCCCA'
p1522
aI228
aI25
aa(lp1523
S'TATTTT'
p1524
aI4972
aI352
aa(lp1525
S'CCCCCG'
p1526
aI100
aI15
aa(lp1527
S'CTTGAG'
p1528
aI490
aI32
aa(lp1529
S'ATGATG'
p1530
aI1054
aI150
aa(lp1531
S'ATGATA'
p1532
aI1604
aI188
aa(lp1533
S'CTTGAA'
p1534
aI1136
aI72
aa(lp1535
S'TGCAAC'
p1536
aI561
aI48
aa(lp1537
S'TGCAAA'
p1538
aI1270
aI132
aa(lp1539
S'TGCAAG'
p1540
aI761
aI98
aa(lp1541
S'GCCGTC'
p1542
aI179
aI25
aa(lp1543
S'ATGATT'
p1544
aI1363
aI163
aa(lp1545
S'CTTGAT'
p1546
aI887
aI60
aa(lp1547
S'CGAATC'
p1548
aI332
aI41
aa(lp1549
S'TTGAGG'
p1550
aI560
aI60
aa(lp1551
S'AATCTC'
p1552
aI789
aI71
aa(lp1553
S'CAATGT'
p1554
aI832
aI85
aa(lp1555
S'TTGAGC'
p1556
aI535
aI44
aa(lp1557
S'TGCAAT'
p1558
aI1092
aI120
aa(lp1559
S'GAGAAT'
p1560
aI881
aI69
aa(lp1561
S'TGTCTT'
p1562
aI1011
aI95
aa(lp1563
S'AGTAGC'
p1564
aI482
aI11
aa(lp1565
S'AAGGCC'
p1566
aI372
aI12
aa(lp1567
S'ATAACC'
p1568
aI687
aI59
aa(lp1569
S'AAGGCA'
p1570
aI736
aI52
aa(lp1571
S'ATAACA'
p1572
aI1516
aI139
aa(lp1573
S'AAGGCG'
p1574
aI385
aI31
aa(lp1575
S'ATAACG'
p1576
aI719
aI64
aa(lp1577
S'TCCATT'
p1578
aI1102
aI107
aa(lp1579
S'TGTCTG'
p1580
aI468
aI52
aa(lp1581
S'GAGAAG'
p1582
aI941
aI90
aa(lp1583
S'GAGAAA'
p1584
aI1931
aI167
aa(lp1585
S'TGTCTC'
p1586
aI526
aI39
aa(lp1587
S'GAGAAC'
p1588
aI639
aI63
aa(lp1589
S'TGTCTA'
p1590
aI552
aI49
aa(lp1591
S'TGTGGC'
p1592
aI401
aI63
aa(lp1593
S'TGTGGA'
p1594
aI482
aI62
aa(lp1595
S'TGTGGG'
p1596
aI359
aI55
aa(lp1597
S'ATAACT'
p1598
aI1252
aI104
aa(lp1599
S'AAGGCT'
p1600
aI622
aI68
aa(lp1601
S'ACATCC'
p1602
aI460
aI72
aa(lp1603
S'TAGGCT'
p1604
aI316
aI22
aa(lp1605
S'GTCACG'
p1606
aI241
aI43
aa(lp1607
S'AGGTAT'
p1608
aI809
aI99
aa(lp1609
S'ACCAAG'
p1610
aI601
aI67
aa(lp1611
S'ACTGAA'
p1612
aI998
aI100
aa(lp1613
S'ACCAAA'
p1614
aI1269
aI149
aa(lp1615
S'GGTCAA'
p1616
aI442
aI61
aa(lp1617
S'GCCCCA'
p1618
aI189
aI10
aa(lp1619
S'TCACAG'
p1620
aI509
aI48
aa(lp1621
S'GATCGC'
p1622
aI196
aI17
aa(lp1623
S'GGTCAT'
p1624
aI431
aI55
aa(lp1625
S'ACCAAT'
p1626
aI877
aI136
aa(lp1627
S'CGTGCA'
p1628
aI326
aI37
aa(lp1629
S'AGGTAA'
p1630
aI849
aI71
aa(lp1631
S'GATAGG'
p1632
aI398
aI40
aa(lp1633
S'TTTTGC'
p1634
aI1592
aI150
aa(lp1635
S'TCTTAC'
p1636
aI813
aI40
aa(lp1637
S'TTTTGA'
p1638
aI2311
aI159
aa(lp1639
S'TCTTAA'
p1640
aI1142
aI85
aa(lp1641
S'AATTGA'
p1642
aI1589
aI126
aa(lp1643
S'TCTTAG'
p1644
aI676
aI59
aa(lp1645
S'AATTGC'
p1646
aI898
aI63
aa(lp1647
S'TAGCCA'
p1648
aI433
aI32
aa(lp1649
S'TGGGGT'
p1650
aI288
aI35
aa(lp1651
S'GCAATG'
p1652
aI646
aI58
aa(lp1653
S'GATAAT'
p1654
aI1671
aI199
aa(lp1655
S'CGCTCA'
p1656
aI250
aI8
aa(lp1657
S'TAGCCG'
p1658
aI290
aI65
aa(lp1659
S'AATTGT'
p1660
aI1612
aI142
aa(lp1661
S'TTATCG'
p1662
aI680
aI93
aa(lp1663
S'TCTTAT'
p1664
aI1468
aI150
aa(lp1665
S'TTTTGT'
p1666
aI2844
aI255
aa(lp1667
S'CGCTCT'
p1668
aI322
aI25
aa(lp1669
S'GATAAA'
p1670
aI1735
aI183
aa(lp1671
S'TCTCGT'
p1672
aI440
aI47
aa(lp1673
S'TAGCCT'
p1674
aI457
aI54
aa(lp1675
S'TGGGGC'
p1676
aI164
aI20
aa(lp1677
S'TGGGGA'
p1678
aI264
aI13
aa(lp1679
S'GATCCT'
p1680
aI372
aI42
aa(lp1681
S'AAGAAT'
p1682
aI2067
aI246
aa(lp1683
S'GTTATC'
p1684
aI653
aI59
aa(lp1685
S'AAGAAC'
p1686
aI1323
aI126
aa(lp1687
S'GATCCA'
p1688
aI278
aI24
aa(lp1689
S'AAGAAA'
p1690
aI4953
aI451
aa(lp1691
S'TATTAG'
p1692
aI1181
aI105
aa(lp1693
S'AAGAAG'
p1694
aI1967
aI169
aa(lp1695
S'GATCCG'
p1696
aI223
aI33
aa(lp1697
S'ATGCCG'
p1698
aI268
aI25
aa(lp1699
S'CAAGGG'
p1700
aI374
aI37
aa(lp1701
S'CAAGGC'
p1702
aI354
aI16
aa(lp1703
S'GGTTCT'
p1704
aI555
aI60
aa(lp1705
S'CAAGGA'
p1706
aI787
aI89
aa(lp1707
S'GGTTCA'
p1708
aI438
aI45
aa(lp1709
S'GGTTCC'
p1710
aI275
aI25
aa(lp1711
S'CAAGGT'
p1712
aI490
aI35
aa(lp1713
S'GGTTCG'
p1714
aI313
aI68
aa(lp1715
S'CTGTAT'
p1716
aI926
aI81
aa(lp1717
S'ATTATA'
p1718
aI3144
aI299
aa(lp1719
S'ATTATC'
p1720
aI1633
aI187
aa(lp1721
S'TAGAAT'
p1722
aI1214
aI92
aa(lp1723
S'CAAACG'
p1724
aI549
aI68
aa(lp1725
S'ATTATG'
p1726
aI1314
aI113
aa(lp1727
S'TAGGCC'
p1728
aI222
aI20
aa(lp1729
S'AGTCTT'
p1730
aI648
aI45
aa(lp1731
S'TAGAAA'
p1732
aI2008
aI149
aa(lp1733
S'TAGAAC'
p1734
aI675
aI43
aa(lp1735
S'ATTATT'
p1736
aI3854
aI288
aa(lp1737
S'TAGAAG'
p1738
aI1004
aI90
aa(lp1739
S'AGTCTA'
p1740
aI390
aI31
aa(lp1741
S'AGTCTC'
p1742
aI376
aI56
aa(lp1743
S'GTTCTG'
p1744
aI537
aI52
aa(lp1745
S'AGTCTG'
p1746
aI330
aI44
aa(lp1747
S'TAACTC'
p1748
aI569
aI57
aa(lp1749
S'TAACTA'
p1750
aI1063
aI97
aa(lp1751
S'TAACTG'
p1752
aI678
aI44
aa(lp1753
S'ATCTAT'
p1754
aI1312
aI153
aa(lp1755
S'GCCCCG'
p1756
aI122
aI10
aa(lp1757
S'GGCGCT'
p1758
aI261
aI47
aa(lp1759
S'TAACTT'
p1760
aI1250
aI85
aa(lp1761
S'ATCTAG'
p1762
aI445
aI40
aa(lp1763
S'ATCTAC'
p1764
aI729
aI98
aa(lp1765
S'ATCTAA'
p1766
aI1093
aI181
aa(lp1767
S'CATAGC'
p1768
aI416
aI31
aa(lp1769
S'GGTCAG'
p1770
aI222
aI19
aa(lp1771
S'CCATGT'
p1772
aI404
aI46
aa(lp1773
S'GCCCCC'
p1774
aI141
aI19
aa(lp1775
S'TGGAGG'
p1776
aI364
aI45
aa(lp1777
S'TGGAGA'
p1778
aI571
aI74
aa(lp1779
S'TGGAGC'
p1780
aI278
aI25
aa(lp1781
S'CCATGC'
p1782
aI309
aI31
aa(lp1783
S'CCATGA'
p1784
aI363
aI31
aa(lp1785
S'CGTGCT'
p1786
aI327
aI43
aa(lp1787
S'TGGAGT'
p1788
aI457
aI55
aa(lp1789
S'GGTCAC'
p1790
aI255
aI47
aa(lp1791
S'ATTACG'
p1792
aI637
aI64
aa(lp1793
S'TCAGTA'
p1794
aI910
aI123
aa(lp1795
S'TCAGTC'
p1796
aI404
aI48
aa(lp1797
S'CTCTCT'
p1798
aI759
aI33
aa(lp1799
S'GGGGAT'
p1800
aI200
aI17
aa(lp1801
S'TCAGTG'
p1802
aI481
aI38
aa(lp1803
S'CGATAT'
p1804
aI709
aI73
aa(lp1805
S'GGGGAA'
p1806
aI461
aI42
aa(lp1807
S'GGGGAC'
p1808
aI149
aI10
aa(lp1809
S'CTCTCC'
p1810
aI433
aI39
aa(lp1811
S'TCAGTT'
p1812
aI809
aI66
aa(lp1813
S'CTCTCA'
p1814
aI537
aI29
aa(lp1815
S'CGATAG'
p1816
aI365
aI32
aa(lp1817
S'CGATAA'
p1818
aI763
aI122
aa(lp1819
S'ATGCTG'
p1820
aI551
aI59
aa(lp1821
S'CGATAC'
p1822
aI357
aI55
aa(lp1823
S'GTGTTT'
p1824
aI940
aI85
aa(lp1825
S'GCTACT'
p1826
aI506
aI12
aa(lp1827
S'GTGGTT'
p1828
aI527
aI55
aa(lp1829
S'GTGTTC'
p1830
aI473
aI30
aa(lp1831
S'GTGTTA'
p1832
aI690
aI72
aa(lp1833
S'GTGTTG'
p1834
aI553
aI63
aa(lp1835
S'CGTGCC'
p1836
aI178
aI16
aa(lp1837
S'GTGGTA'
p1838
aI599
aI93
aa(lp1839
S'GCTACA'
p1840
aI444
aI29
aa(lp1841
S'GTGGTC'
p1842
aI233
aI22
aa(lp1843
S'CTAAGC'
p1844
aI346
aI18
aa(lp1845
S'GTGGTG'
p1846
aI442
aI49
aa(lp1847
S'GCTACG'
p1848
aI242
aI18
aa(lp1849
S'GCCCCT'
p1850
aI231
aI55
aa(lp1851
S'TTTCGT'
p1852
aI1117
aI119
aa(lp1853
S'TGCCCT'
p1854
aI455
aI35
aa(lp1855
S'TCAGCC'
p1856
aI361
aI47
aa(lp1857
S'TTTCCC'
p1858
aI1056
aI80
aa(lp1859
S'AGCGTT'
p1860
aI448
aI32
aa(lp1861
S'CGTGCG'
p1862
aI203
aI20
aa(lp1863
S'TTTCGA'
p1864
aI1003
aI98
aa(lp1865
S'TGCCCA'
p1866
aI305
aI27
aa(lp1867
S'TGCCCG'
p1868
aI144
aI10
aa(lp1869
S'TCCAGT'
p1870
aI475
aI38
aa(lp1871
S'AGCGTA'
p1872
aI471
aI30
aa(lp1873
S'AGGTAC'
p1874
aI411
aI35
aa(lp1875
S'AGCGTG'
p1876
aI282
aI18
aa(lp1877
S'GGCCCC'
p1878
aI165
aI19
aa(lp1879
S'GGCCCA'
p1880
aI239
aI29
aa(lp1881
S'CACGTG'
p1882
aI343
aI127
aa(lp1883
S'GGCCCG'
p1884
aI164
aI11
aa(lp1885
S'CACGTA'
p1886
aI418
aI35
aa(lp1887
S'CACGTC'
p1888
aI256
aI27
aa(lp1889
S'ACGTGC'
p1890
aI309
aI42
aa(lp1891
S'CTACGA'
p1892
aI335
aI25
aa(lp1893
S'GGGACT'
p1894
aI181
aI11
aa(lp1895
S'ACAGTC'
p1896
aI386
aI30
aa(lp1897
S'CACGTT'
p1898
aI457
aI48
aa(lp1899
S'CTAAGT'
p1900
aI470
aI30
aa(lp1901
S'GGCCCT'
p1902
aI219
aI18
aa(lp1903
S'GGGACA'
p1904
aI288
aI45
aa(lp1905
S'GGTATA'
p1906
aI786
aI64
aa(lp1907
S'GGGACC'
p1908
aI146
aI7
aa(lp1909
S'TCGTGG'
p1910
aI289
aI42
aa(lp1911
S'ACGTGT'
p1912
aI419
aI59
aa(lp1913
S'GCTTCC'
p1914
aI580
aI62
aa(lp1915
S'GCTGTC'
p1916
aI343
aI21
aa(lp1917
S'AGAGAG'
p1918
aI777
aI31
aa(lp1919
S'AGAGAA'
p1920
aI1605
aI109
aa(lp1921
S'AGAGAC'
p1922
aI436
aI30
aa(lp1923
S'TCTATA'
p1924
aI1490
aI152
aa(lp1925
S'GTCTTT'
p1926
aI999
aI84
aa(lp1927
S'TCTATC'
p1928
aI833
aI104
aa(lp1929
S'TCTATG'
p1930
aI691
aI69
aa(lp1931
S'AGAGAT'
p1932
aI863
aI81
aa(lp1933
S'ATGTGC'
p1934
aI588
aI41
aa(lp1935
S'GTCTTG'
p1936
aI515
aI42
aa(lp1937
S'TCTATT'
p1938
aI1572
aI152
aa(lp1939
S'GTCTTC'
p1940
aI519
aI28
aa(lp1941
S'GTCTTA'
p1942
aI495
aI44
aa(lp1943
S'GCAGAG'
p1944
aI381
aI25
aa(lp1945
S'GCTCAA'
p1946
aI539
aI45
aa(lp1947
S'CGCTCG'
p1948
aI156
aI15
aa(lp1949
S'GCAGAC'
p1950
aI266
aI27
aa(lp1951
S'GCAGAA'
p1952
aI825
aI34
aa(lp1953
S'GCTCAG'
p1954
aI312
aI31
aa(lp1955
S'AGACGT'
p1956
aI350
aI25
aa(lp1957
S'ATGCGT'
p1958
aI437
aI42
aa(lp1959
S'TTGCTG'
p1960
aI759
aI69
aa(lp1961
S'TTGCTA'
p1962
aI826
aI45
aa(lp1963
S'TTGCTC'
p1964
aI690
aI61
aa(lp1965
S'GCAGAT'
p1966
aI631
aI82
aa(lp1967
S'GCTCAT'
p1968
aI490
aI82
aa(lp1969
S'GTTTGC'
p1970
aI655
aI54
aa(lp1971
S'TTGCTT'
p1972
aI1460
aI108
aa(lp1973
S'ATGCGG'
p1974
aI290
aI23
aa(lp1975
S'GAGAGG'
p1976
aI445
aI47
aa(lp1977
S'CGCTCC'
p1978
aI179
aI25
aa(lp1979
S'ATGCGC'
p1980
aI307
aI25
aa(lp1981
S'ATGCGA'
p1982
aI444
aI61
aa(lp1983
S'TGTAAG'
p1984
aI702
aI43
aa(lp1985
S'GGCTAG'
p1986
aI236
aI17
aa(lp1987
S'TGTAAC'
p1988
aI683
aI65
aa(lp1989
S'GGCTAC'
p1990
aI261
aI19
aa(lp1991
S'TGTAAA'
p1992
aI1763
aI176
aa(lp1993
S'GGCTAA'
p1994
aI434
aI70
aa(lp1995
S'ACTGTA'
p1996
aI846
aI63
aa(lp1997
S'TTGGTA'
p1998
aI937
aI116
aa(lp1999
S'ACTGTC'
p2000
aI465
aI51
aa(lp2001
S'TTGGTC'
p2002
aI466
aI56
aa(lp2003
S'TTCGAC'
p2004
aI346
aI27
aa(lp2005
S'TTCGAA'
p2006
aI934
aI83
aa(lp2007
S'CACGGT'
p2008
aI216
aI26
aa(lp2009
S'GACTGC'
p2010
aI285
aI30
aa(lp2011
S'GGCTAT'
p2012
aI496
aI68
aa(lp2013
S'GACTGA'
p2014
aI355
aI37
aa(lp2015
S'GACTGG'
p2016
aI222
aI23
aa(lp2017
S'TTCGAT'
p2018
aI811
aI111
aa(lp2019
S'TTGGTT'
p2020
aI1096
aI113
aa(lp2021
S'ACTGTT'
p2022
aI1031
aI79
aa(lp2023
S'GTTTCT'
p2024
aI1399
aI163
aa(lp2025
S'AGGTCC'
p2026
aI184
aI11
aa(lp2027
S'ATAATT'
p2028
aI2851
aI196
aa(lp2029
S'CCTTTT'
p2030
aI2308
aI208
aa(lp2031
S'GTTTCG'
p2032
aI520
aI63
aa(lp2033
S'GTTTCC'
p2034
aI754
aI39
aa(lp2035
S'GTGCTC'
p2036
aI319
aI28
aa(lp2037
S'GTTTCA'
p2038
aI1054
aI139
aa(lp2039
S'ATAATG'
p2040
aI1672
aI169
aa(lp2041
S'CCTTTA'
p2042
aI1086
aI110
aa(lp2043
S'CCTTTC'
p2044
aI1027
aI77
aa(lp2045
S'ATAATC'
p2046
aI1204
aI93
aa(lp2047
S'ATAATA'
p2048
aI4499
aI414
aa(lp2049
S'CCTTTG'
p2050
aI742
aI76
aa(lp2051
S'ACAGAA'
p2052
aI1346
aI126
aa(lp2053
S'CTCTCG'
p2054
aI300
aI35
aa(lp2055
S'ACAGAC'
p2056
aI434
aI40
aa(lp2057
S'GATAAC'
p2058
aI658
aI66
aa(lp2059
S'ACAGAG'
p2060
aI499
aI36
aa(lp2061
S'TTATCT'
p2062
aI1509
aI180
aa(lp2063
S'CTGGAC'
p2064
aI213
aI39
aa(lp2065
S'CTGGAA'
p2066
aI665
aI62
aa(lp2067
S'CTGGAG'
p2068
aI305
aI32
aa(lp2069
S'ACAGAT'
p2070
aI754
aI68
aa(lp2071
S'GATAAG'
p2072
aI805
aI138
aa(lp2073
S'CCTTGC'
p2074
aI464
aI60
aa(lp2075
S'TTATCA'
p2076
aI1717
aI196
aa(lp2077
S'CTGGAT'
p2078
aI391
aI36
aa(lp2079
S'TTATCC'
p2080
aI792
aI73
aa(lp2081
S'CCAATG'
p2082
aI476
aI59
aa(lp2083
S'AAACCG'
p2084
aI488
aI42
aa(lp2085
S'AAACCA'
p2086
aI1061
aI110
aa(lp2087
S'CCAATC'
p2088
aI424
aI75
aa(lp2089
S'AAACCC'
p2090
aI528
aI63
aa(lp2091
S'CCAATA'
p2092
aI842
aI97
aa(lp2093
S'TGTCGG'
p2094
aI212
aI19
aa(lp2095
S'ATACGT'
p2096
aI870
aI73
aa(lp2097
S'CCCTAT'
p2098
aI402
aI35
aa(lp2099
S'GAGATA'
p2100
aI867
aI85
aa(lp2101
S'AACGAA'
p2102
aI1151
aI141
aa(lp2103
S'GAGATG'
p2104
aI627
aI104
aa(lp2105
S'TGTCGA'
p2106
aI332
aI50
aa(lp2107
S'ATTTGA'
p2108
aI1602
aI166
aa(lp2109
S'CCAATT'
p2110
aI907
aI109
aa(lp2111
S'ATTTGC'
p2112
aI1010
aI110
aa(lp2113
S'GTCGAT'
p2114
aI295
aI33
aa(lp2115
S'ATTTGG'
p2116
aI903
aI71
aa(lp2117
S'AACGAT'
p2118
aI801
aI94
aa(lp2119
S'TGTCGT'
p2120
aI481
aI36
aa(lp2121
S'CCCTAC'
p2122
aI258
aI13
aa(lp2123
S'GAGATT'
p2124
aI670
aI48
aa(lp2125
S'CCCTAA'
p2126
aI390
aI68
aa(lp2127
S'TACAAC'
p2128
aI805
aI67
aa(lp2129
S'CATTAT'
p2130
aI1705
aI181
aa(lp2131
S'CTACAC'
p2132
aI395
aI29
aa(lp2133
S'TGGATT'
p2134
aI727
aI104
aa(lp2135
S'ATCACA'
p2136
aI891
aI104
aa(lp2137
S'ATCACC'
p2138
aI530
aI58
aa(lp2139
S'CATGCT'
p2140
aI482
aI69
aa(lp2141
S'TGACAC'
p2142
aI452
aI59
aa(lp2143
S'TGACAA'
p2144
aI924
aI77
aa(lp2145
S'TGGATA'
p2146
aI789
aI102
aa(lp2147
S'CATTAG'
p2148
aI647
aI75
aa(lp2149
S'CATTAA'
p2150
aI1328
aI127
aa(lp2151
S'TGGATG'
p2152
aI490
aI47
aa(lp2153
S'CATGCA'
p2154
aI605
aI72
aa(lp2155
S'TGACAT'
p2156
aI885
aI111
aa(lp2157
S'CAATCC'
p2158
aI476
aI60
aa(lp2159
S'ATCACT'
p2160
aI821
aI93
aa(lp2161
S'AATTAG'
p2162
aI1145
aI106
aa(lp2163
S'GTAGAA'
p2164
aI944
aI58
aa(lp2165
S'GTAGAC'
p2166
aI282
aI16
aa(lp2167
S'GTAGAG'
p2168
aI427
aI24
aa(lp2169
S'ACAACA'
p2170
aI1166
aI135
aa(lp2171
S'ACAACC'
p2172
aI564
aI71
aa(lp2173
S'GATTGC'
p2174
aI513
aI63
aa(lp2175
S'GATTGA'
p2176
aI767
aI96
aa(lp2177
S'AGTCCC'
p2178
aI185
aI9
aa(lp2179
S'GTAGAT'
p2180
aI697
aI90
aa(lp2181
S'TGCTAC'
p2182
aI510
aI21
aa(lp2183
S'TTGCCT'
p2184
aI771
aI78
aa(lp2185
S'TGATGC'
p2186
aI555
aI67
aa(lp2187
S'CATGGC'
p2188
aI299
aI19
aa(lp2189
S'GATTGT'
p2190
aI662
aI48
aa(lp2191
S'ACAACT'
p2192
aI806
aI49
aa(lp2193
S'GCGCGT'
p2194
aI208
aI29
aa(lp2195
S'TAATAG'
p2196
aI1333
aI103
aa(lp2197
S'GTCCGG'
p2198
aI134
aI7
aa(lp2199
S'TAATAC'
p2200
aI1248
aI110
aa(lp2201
S'GTCCGA'
p2202
aI169
aI21
aa(lp2203
S'TAATAA'
p2204
aI3758
aI326
aa(lp2205
S'GTCCGC'
p2206
aI161
aI15
aa(lp2207
S'TGCCAT'
p2208
aI658
aI59
aa(lp2209
S'GATCCC'
p2210
aI196
aI16
aa(lp2211
S'CACATC'
p2212
aI516
aI41
aa(lp2213
S'GTCCGT'
p2214
aI211
aI26
aa(lp2215
S'TAATAT'
p2216
aI3706
aI334
aa(lp2217
S'CGTAAC'
p2218
aI343
aI19
aa(lp2219
S'GCTAGC'
p2220
aI275
aI21
aa(lp2221
S'ATTCGC'
p2222
aI400
aI43
aa(lp2223
S'TTCTCC'
p2224
aI914
aI79
aa(lp2225
S'ATTCGA'
p2226
aI609
aI69
aa(lp2227
S'TTCTCA'
p2228
aI1216
aI105
aa(lp2229
S'ATCCAT'
p2230
aI770
aI88
aa(lp2231
S'TTCTCG'
p2232
aI696
aI94
aa(lp2233
S'TCGTAC'
p2234
aI418
aI62
aa(lp2235
S'TACCTT'
p2236
aI940
aI95
aa(lp2237
S'TCGTAA'
p2238
aI644
aI62
aa(lp2239
S'TCGTAG'
p2240
aI287
aI25
aa(lp2241
S'GAACCT'
p2242
aI415
aI35
aa(lp2243
S'ATCCAA'
p2244
aI768
aI75
aa(lp2245
S'ATCCAC'
p2246
aI430
aI53
aa(lp2247
S'TGTTTG'
p2248
aI1118
aI98
aa(lp2249
S'TTCTCT'
p2250
aI1625
aI102
aa(lp2251
S'TGAACA'
p2252
aI904
aI72
aa(lp2253
S'GAACCC'
p2254
aI348
aI58
aa(lp2255
S'GAACCA'
p2256
aI572
aI70
aa(lp2257
S'TACCTA'
p2258
aI678
aI63
aa(lp2259
S'TACCTC'
p2260
aI476
aI36
aa(lp2261
S'TCGTAT'
p2262
aI763
aI103
aa(lp2263
S'ATGTTA'
p2264
aI1170
aI105
aa(lp2265
S'ACCATA'
p2266
aI764
aI56
aa(lp2267
S'ACCATG'
p2268
aI404
aI30
aa(lp2269
S'ATGTTG'
p2270
aI876
aI100
aa(lp2271
S'GCGGAC'
p2272
aI144
aI11
aa(lp2273
S'AGCTCT'
p2274
aI474
aI28
aa(lp2275
S'GAGCTG'
p2276
aI316
aI25
aa(lp2277
S'AGTGGT'
p2278
aI527
aI57
aa(lp2279
S'AGCGTC'
p2280
aI201
aI10
aa(lp2281
S'ATGAGC'
p2282
aI543
aI74
aa(lp2283
S'ATGTTT'
p2284
aI1773
aI168
aa(lp2285
S'ACCATT'
p2286
aI866
aI70
aa(lp2287
S'AACCTC'
p2288
aI488
aI47
aa(lp2289
S'AGTGGA'
p2290
aI583
aI63
aa(lp2291
S'AGTGGC'
p2292
aI369
aI33
aa(lp2293
S'AGCTCC'
p2294
aI239
aI16
aa(lp2295
S'AGCTCA'
p2296
aI464
aI60
aa(lp2297
S'ATAGCC'
p2298
aI478
aI56
aa(lp2299
S'CAGTAA'
p2300
aI1049
aI122
aa(lp2301
S'CAGTAC'
p2302
aI533
aI59
aa(lp2303
S'CAGTAG'
p2304
aI522
aI57
aa(lp2305
S'TTTCAC'
p2306
aI1300
aI123
aa(lp2307
S'CAGTAT'
p2308
aI861
aI59
aa(lp2309
S'AAAGTA'
p2310
aI2053
aI146
aa(lp2311
S'TGCCAG'
p2312
aI318
aI21
aa(lp2313
S'CCGGCT'
p2314
aI186
aI14
aa(lp2315
S'GATCTA'
p2316
aI527
aI82
aa(lp2317
S'GATCTC'
p2318
aI413
aI66
aa(lp2319
S'ATTGAC'
p2320
aI621
aI51
aa(lp2321
S'GATCTG'
p2322
aI411
aI65
aa(lp2323
S'TGTTTT'
p2324
aI2796
aI257
aa(lp2325
S'CCGGCC'
p2326
aI175
aI8
aa(lp2327
S'CCGGCA'
p2328
aI167
aI9
aa(lp2329
S'ATTAGA'
p2330
aI1123
aI154
aa(lp2331
S'ACTCTC'
p2332
aI501
aI51
aa(lp2333
S'ATTAGC'
p2334
aI595
aI40
aa(lp2335
S'TCCCTC'
p2336
aI428
aI31
aa(lp2337
S'TGTCCG'
p2338
aI223
aI31
aa(lp2339
S'TCCCTA'
p2340
aI368
aI24
aa(lp2341
S'TGCCAC'
p2342
aI414
aI64
aa(lp2343
S'TCCCTG'
p2344
aI374
aI59
aa(lp2345
S'GATCTT'
p2346
aI794
aI91
aa(lp2347
S'CTAGAC'
p2348
aI265
aI30
aa(lp2349
S'CACAAT'
p2350
aI955
aI125
aa(lp2351
S'AAGTGC'
p2352
aI598
aI37
aa(lp2353
S'TGTTCT'
p2354
aI1211
aI104
aa(lp2355
S'AAGTGG'
p2356
aI556
aI47
aa(lp2357
S'TGATTG'
p2358
aI892
aI117
aa(lp2359
S'TCTGAT'
p2360
aI721
aI83
aa(lp2361
S'TGATTA'
p2362
aI1175
aI109
aa(lp2363
S'TGTTCA'
p2364
aI921
aI70
aa(lp2365
S'GAATGT'
p2366
aI777
aI68
aa(lp2367
S'TGTTCC'
p2368
aI604
aI48
aa(lp2369
S'CACAAA'
p2370
aI1098
aI177
aa(lp2371
S'CACAAC'
p2372
aI515
aI42
aa(lp2373
S'TGTTCG'
p2374
aI445
aI33
aa(lp2375
S'TCTGAA'
p2376
aI872
aI76
aa(lp2377
S'TGATTT'
p2378
aI1744
aI175
aa(lp2379
S'GAAGTC'
p2380
aI461
aI53
aa(lp2381
S'TCTGAG'
p2382
aI404
aI37
aa(lp2383
S'CGCGCC'
p2384
aI183
aI25
aa(lp2385
S'CGCGCA'
p2386
aI243
aI40
aa(lp2387
S'AGATGG'
p2388
aI506
aI50
aa(lp2389
S'CGCGCG'
p2390
aI194
aI22
aa(lp2391
S'CTCCCT'
p2392
aI405
aI52
aa(lp2393
S'AGCGGG'
p2394
aI218
aI19
aa(lp2395
S'AGCGGA'
p2396
aI380
aI29
aa(lp2397
S'ACCTCT'
p2398
aI580
aI54
aa(lp2399
S'GGTAAG'
p2400
aI424
aI28
aa(lp2401
S'GACGTG'
p2402
aI235
aI30
aa(lp2403
S'CGCGCT'
p2404
aI254
aI34
aa(lp2405
S'GTGCGA'
p2406
aI261
aI25
aa(lp2407
S'ACCTCA'
p2408
aI530
aI43
aa(lp2409
S'CTCCCA'
p2410
aI378
aI55
aa(lp2411
S'GTGCGG'
p2412
aI260
aI27
aa(lp2413
S'TAGCTA'
p2414
aI531
aI31
aa(lp2415
S'TAAGCC'
p2416
aI371
aI23
aa(lp2417
S'CGGGAG'
p2418
aI148
aI5
aa(lp2419
S'TAAGCA'
p2420
aI851
aI55
aa(lp2421
S'CGGGAA'
p2422
aI352
aI35
aa(lp2423
S'CCCATA'
p2424
aI472
aI50
aa(lp2425
S'TAGCTG'
p2426
aI441
aI31
aa(lp2427
S'CCCATC'
p2428
aI327
aI32
aa(lp2429
S'TTGTTG'
p2430
aI1453
aI171
aa(lp2431
S'CCTGCT'
p2432
aI374
aI23
aa(lp2433
S'CCGAAT'
p2434
aI314
aI27
aa(lp2435
S'CCCATT'
p2436
aI570
aI47
aa(lp2437
S'CGGGAT'
p2438
aI174
aI14
aa(lp2439
S'ATTTCG'
p2440
aI768
aI67
aa(lp2441
S'GCCTCA'
p2442
aI334
aI24
aa(lp2443
S'TAAGCT'
p2444
aI650
aI31
aa(lp2445
S'GCCTCC'
p2446
aI213
aI21
aa(lp2447
S'CCGAAC'
p2448
aI254
aI34
aa(lp2449
S'CCTGCG'
p2450
aI203
aI16
aa(lp2451
S'CCGAAA'
p2452
aI635
aI79
aa(lp2453
S'CCGAAG'
p2454
aI357
aI40
aa(lp2455
S'CGAGGC'
p2456
aI200
aI19
aa(lp2457
S'CCTGCA'
p2458
aI387
aI35
aa(lp2459
S'CGACAC'
p2460
aI197
aI14
aa(lp2461
S'CCATTC'
p2462
aI573
aI38
aa(lp2463
S'CCATTA'
p2464
aI837
aI80
aa(lp2465
S'ATTTCC'
p2466
aI1162
aI72
aa(lp2467
S'TATAAA'
p2468
aI3818
aI501
aa(lp2469
S'TATAAC'
p2470
aI1265
aI119
aa(lp2471
S'CATTTC'
p2472
aI1206
aI85
aa(lp2473
S'TATAAT'
p2474
aI3161
aI264
aa(lp2475
S'CCATTT'
p2476
aI1201
aI96
aa(lp2477
S'TCTACA'
p2478
aI786
aI77
aa(lp2479
S'TCTACC'
p2480
aI413
aI26
aa(lp2481
S'CTAACT'
p2482
aI587
aI53
aa(lp2483
S'TCTACG'
p2484
aI357
aI23
aa(lp2485
S'ACTTTC'
p2486
aI1166
aI89
aa(lp2487
S'CGCAAC'
p2488
aI281
aI14
aa(lp2489
S'CGCAAA'
p2490
aI634
aI74
aa(lp2491
S'ATACCG'
p2492
aI392
aI48
aa(lp2493
S'CGCAAG'
p2494
aI419
aI53
aa(lp2495
S'ATACCA'
p2496
aI934
aI111
aa(lp2497
S'ATACCC'
p2498
aI428
aI59
aa(lp2499
S'TCTACT'
p2500
aI818
aI75
aa(lp2501
S'ATACCT'
p2502
aI826
aI99
aa(lp2503
S'CGCAAT'
p2504
aI487
aI41
aa(lp2505
S'TAGTAA'
p2506
aI1377
aI100
aa(lp2507
S'TGGGTG'
p2508
aI485
aI115
aa(lp2509
S'TAGTAC'
p2510
aI659
aI34
aa(lp2511
S'CTCAAG'
p2512
aI496
aI38
aa(lp2513
S'CTCAAA'
p2514
aI1090
aI91
aa(lp2515
S'TAGTAG'
p2516
aI846
aI59
aa(lp2517
S'CTCAAC'
p2518
aI521
aI85
aa(lp2519
S'GTGTGC'
p2520
aI347
aI32
aa(lp2521
S'GTGTGA'
p2522
aI474
aI29
aa(lp2523
S'GTGTGG'
p2524
aI394
aI50
aa(lp2525
S'TAACGG'
p2526
aI386
aI45
aa(lp2527
S'CTCAAT'
p2528
aI835
aI62
aa(lp2529
S'TAGTAT'
p2530
aI1505
aI162
aa(lp2531
S'GTTCTC'
p2532
aI665
aI59
aa(lp2533
S'CTCCCG'
p2534
aI164
aI8
aa(lp2535
S'GTGTGT'
p2536
aI785
aI66
aa(lp2537
S'ATCTTT'
p2538
aI1813
aI132
aa(lp2539
S'GTTGGG'
p2540
aI332
aI56
aa(lp2541
S'GTTGGA'
p2542
aI611
aI79
aa(lp2543
S'GTTGGC'
p2544
aI356
aI29
aa(lp2545
S'CCTTGG'
p2546
aI337
aI25
aa(lp2547
S'CCTTGA'
p2548
aI563
aI46
aa(lp2549
S'GGGAAA'
p2550
aI971
aI74
aa(lp2551
S'AGGATT'
p2552
aI808
aI95
aa(lp2553
S'GGACGT'
p2554
aI179
aI7
aa(lp2555
S'GTTGGT'
p2556
aI543
aI52
aa(lp2557
S'ATCTTG'
p2558
aI861
aI68
aa(lp2559
S'ATCTTA'
p2560
aI1044
aI86
aa(lp2561
S'ATCTTC'
p2562
aI1107
aI122
aa(lp2563
S'CCTTGT'
p2564
aI641
aI58
aa(lp2565
S'AGGATA'
p2566
aI887
aI84
aa(lp2567
S'AGGATG'
p2568
aI583
aI87
aa(lp2569
S'GACATG'
p2570
aI381
aI46
aa(lp2571
S'TTGCGT'
p2572
aI580
aI71
aa(lp2573
S'GACATA'
p2574
aI772
aI92
aa(lp2575
S'TCGGCG'
p2576
aI201
aI31
aa(lp2577
S'GAATAT'
p2578
aI1832
aI248
aa(lp2579
S'TCGGCC'
p2580
aI197
aI26
aa(lp2581
S'TCGGCA'
p2582
aI282
aI38
aa(lp2583
S'TTGCGA'
p2584
aI474
aI46
aa(lp2585
S'GACATT'
p2586
aI815
aI101
aa(lp2587
S'TTGCGG'
p2588
aI313
aI23
aa(lp2589
S'GAATAG'
p2590
aI805
aI45
aa(lp2591
S'TCGGCT'
p2592
aI241
aI12
aa(lp2593
S'ATCAGC'
p2594
aI571
aI52
aa(lp2595
S'GAATAC'
p2596
aI834
aI83
aa(lp2597
S'GAATAA'
p2598
aI1845
aI158
aa(lp2599
S'TGCCTG'
p2600
aI365
aI33
aa(lp2601
S'CGTCGT'
p2602
aI220
aI28
aa(lp2603
S'CCGCCG'
p2604
aI198
aI29
aa(lp2605
S'TAGACC'
p2606
aI311
aI58
aa(lp2607
S'GACCTT'
p2608
aI427
aI49
aa(lp2609
S'TGCCTC'
p2610
aI432
aI45
aa(lp2611
S'ACGTCG'
p2612
aI188
aI15
aa(lp2613
S'GAAATG'
p2614
aI1217
aI99
aa(lp2615
S'AATGAT'
p2616
aI1501
aI157
aa(lp2617
S'GAAATA'
p2618
aI2258
aI176
aa(lp2619
S'GAAATC'
p2620
aI890
aI89
aa(lp2621
S'GAAATT'
p2622
aI1865
aI227
aa(lp2623
S'AATGAA'
p2624
aI2410
aI236
aa(lp2625
S'ATGTCC'
p2626
aI457
aI54
aa(lp2627
S'CAAAGT'
p2628
aI936
aI61
aa(lp2629
S'CTCCCC'
p2630
aI288
aI26
aa(lp2631
S'AATGAG'
p2632
aI956
aI90
aa(lp2633
S'TCATTG'
p2634
aI972
aI103
aa(lp2635
S'GCGTAC'
p2636
aI265
aI17
aa(lp2637
S'CTTGGA'
p2638
aI491
aI39
aa(lp2639
S'CTTGGC'
p2640
aI528
aI67
aa(lp2641
S'GTATTG'
p2642
aI857
aI99
aa(lp2643
S'GTCCTT'
p2644
aI545
aI49
aa(lp2645
S'CTTGGG'
p2646
aI272
aI32
aa(lp2647
S'ATACAG'
p2648
aI851
aI81
aa(lp2649
S'AGCCCT'
p2650
aI335
aI40
aa(lp2651
S'GCGTAA'
p2652
aI441
aI40
aa(lp2653
S'TTGAAT'
p2654
aI1622
aI138
aa(lp2655
S'GTCCTA'
p2656
aI281
aI13
aa(lp2657
S'GTCCTC'
p2658
aI271
aI21
aa(lp2659
S'TGCACG'
p2660
aI315
aI31
aa(lp2661
S'TGCACA'
p2662
aI608
aI56
aa(lp2663
S'GTCCTG'
p2664
aI276
aI51
aa(lp2665
S'TGCACC'
p2666
aI409
aI54
aa(lp2667
S'TTGAAA'
p2668
aI2630
aI237
aa(lp2669
S'CTTTTC'
p2670
aI2354
aI169
aa(lp2671
S'AGCCCG'
p2672
aI166
aI10
aa(lp2673
S'AGCCCA'
p2674
aI315
aI20
aa(lp2675
S'TTGAAG'
p2676
aI1222
aI91
aa(lp2677
S'CTTATG'
p2678
aI676
aI59
aa(lp2679
S'ATAAAT'
p2680
aI3555
aI396
aa(lp2681
S'TGGTCG'
p2682
aI185
aI11
aa(lp2683
S'TGGTCA'
p2684
aI422
aI57
aa(lp2685
S'TGGTCC'
p2686
aI211
aI23
aa(lp2687
S'ACGATT'
p2688
aI643
aI66
aa(lp2689
S'GAGACT'
p2690
aI367
aI49
aa(lp2691
S'ACGGGG'
p2692
aI128
aI9
aa(lp2693
S'TGGTCT'
p2694
aI424
aI55
aa(lp2695
S'ATAAAG'
p2696
aI1934
aI172
aa(lp2697
S'ATAAAA'
p2698
aI4981
aI454
aa(lp2699
S'ATGGTG'
p2700
aI540
aI44
aa(lp2701
S'ATAAAC'
p2702
aI1687
aI192
aa(lp2703
S'GAGACG'
p2704
aI228
aI14
aa(lp2705
S'ACGATG'
p2706
aI446
aI45
aa(lp2707
S'CTACAG'
p2708
aI438
aI23
aa(lp2709
S'GAGACC'
p2710
aI239
aI24
aa(lp2711
S'ACGATC'
p2712
aI322
aI36
aa(lp2713
S'GAGACA'
p2714
aI476
aI47
aa(lp2715
S'ACGATA'
p2716
aI764
aI95
aa(lp2717
S'GGTTAC'
p2718
aI429
aI49
aa(lp2719
S'ATGTGT'
p2720
aI925
aI68
aa(lp2721
S'GGTTAA'
p2722
aI602
aI52
aa(lp2723
S'ACCACT'
p2724
aI569
aI38
aa(lp2725
S'GGTTAG'
p2726
aI347
aI14
aa(lp2727
S'CTTCCT'
p2728
aI987
aI67
aa(lp2729
S'GAGGAC'
p2730
aI246
aI19
aa(lp2731
S'CTCAGT'
p2732
aI435
aI47
aa(lp2733
S'TCCGCT'
p2734
aI353
aI34
aa(lp2735
S'CTTCCA'
p2736
aI874
aI96
aa(lp2737
S'ATGTGG'
p2738
aI552
aI69
aa(lp2739
S'ATGTGA'
p2740
aI834
aI69
aa(lp2741
S'CGTATG'
p2742
aI404
aI31
aa(lp2743
S'ACCACA'
p2744
aI558
aI74
aa(lp2745
S'GGTTAT'
p2746
aI668
aI70
aa(lp2747
S'TCCGCC'
p2748
aI225
aI18
aa(lp2749
S'TCCGCA'
p2750
aI315
aI32
aa(lp2751
S'TCCGCG'
p2752
aI232
aI37
aa(lp2753
S'AACGTC'
p2754
aI422
aI42
aa(lp2755
S'AACGTA'
p2756
aI713
aI94
aa(lp2757
S'CGTGAA'
p2758
aI453
aI32
aa(lp2759
S'CGTGAC'
p2760
aI230
aI34
aa(lp2761
S'GGTAGC'
p2762
aI319
aI37
aa(lp2763
S'AGTGTG'
p2764
aI477
aI48
aa(lp2765
S'TCTTCG'
p2766
aI676
aI50
aa(lp2767
S'AGTGTA'
p2768
aI726
aI52
aa(lp2769
S'TCTTCA'
p2770
aI1310
aI120
aa(lp2771
S'AGTGTC'
p2772
aI478
aI62
aa(lp2773
S'TCTTCC'
p2774
aI1035
aI83
aa(lp2775
S'CGTGAT'
p2776
aI449
aI73
aa(lp2777
S'ACTCAA'
p2778
aI782
aI78
aa(lp2779
S'TAAGTC'
p2780
aI441
aI53
aa(lp2781
S'TAAGTA'
p2782
aI1205
aI71
aa(lp2783
S'CAATTT'
p2784
aI1745
aI121
aa(lp2785
S'TCTTCT'
p2786
aI1787
aI156
aa(lp2787
S'AGTGTT'
p2788
aI739
aI50
aa(lp2789
S'GTGCGC'
p2790
aI216
aI16
aa(lp2791
S'TTGGCA'
p2792
aI724
aI75
aa(lp2793
S'AAAGGT'
p2794
aI1188
aI104
aa(lp2795
S'TTGGCC'
p2796
aI422
aI32
aa(lp2797
S'AGTAAC'
p2798
aI793
aI47
aa(lp2799
S'TTAACG'
p2800
aI651
aI65
aa(lp2801
S'TTGGCG'
p2802
aI413
aI35
aa(lp2803
S'GACTTC'
p2804
aI422
aI54
aa(lp2805
S'CGCCGG'
p2806
aI126
aI9
aa(lp2807
S'GACTTA'
p2808
aI486
aI60
aa(lp2809
S'GACTTG'
p2810
aI380
aI34
aa(lp2811
S'AAAGGG'
p2812
aI1092
aI139
aa(lp2813
S'AAAGGA'
p2814
aI1909
aI146
aa(lp2815
S'TTGGCT'
p2816
aI662
aI60
aa(lp2817
S'AAAGGC'
p2818
aI904
aI73
aa(lp2819
S'GAGTAC'
p2820
aI442
aI46
aa(lp2821
S'GTATGG'
p2822
aI459
aI49
aa(lp2823
S'GACTTT'
p2824
aI787
aI70
aa(lp2825
S'TTCTTT'
p2826
aI4428
aI411
aa(lp2827
S'CAAGAA'
p2828
aI1728
aI160
aa(lp2829
S'AGCGAG'
p2830
aI277
aI17
aa(lp2831
S'CAAGAC'
p2832
aI532
aI46
aa(lp2833
S'GATTCG'
p2834
aI317
aI37
aa(lp2835
S'CAAGAG'
p2836
aI741
aI75
aa(lp2837
S'TTCTTG'
p2838
aI1723
aI153
aa(lp2839
S'TTCTTC'
p2840
aI2169
aI192
aa(lp2841
S'TTCTTA'
p2842
aI1790
aI138
aa(lp2843
S'CTTCCC'
p2844
aI578
aI28
aa(lp2845
S'CAAGAT'
p2846
aI892
aI55
aa(lp2847
S'CCCGAT'
p2848
aI178
aI30
aa(lp2849
S'TACGGG'
p2850
aI248
aI32
aa(lp2851
S'TACGGA'
p2852
aI494
aI66
aa(lp2853
S'TCAGCG'
p2854
aI350
aI49
aa(lp2855
S'CCAACT'
p2856
aI448
aI53
aa(lp2857
S'TAGAGT'
p2858
aI582
aI52
aa(lp2859
S'TACGGT'
p2860
aI448
aI53
aa(lp2861
S'CCCGAG'
p2862
aI126
aI28
aa(lp2863
S'AGGGCA'
p2864
aI403
aI28
aa(lp2865
S'CGCTGC'
p2866
aI239
aI10
aa(lp2867
S'CCCGAC'
p2868
aI125
aI9
aa(lp2869
S'TAGAGC'
p2870
aI420
aI35
aa(lp2871
S'TAGAGA'
p2872
aI764
aI40
aa(lp2873
S'CAATTG'
p2874
aI1006
aI90
aa(lp2875
S'GGCGAA'
p2876
aI346
aI39
aa(lp2877
S'GTGCTG'
p2878
aI417
aI32
aa(lp2879
S'GTGCTA'
p2880
aI451
aI35
aa(lp2881
S'ATCTGT'
p2882
aI731
aI61
aa(lp2883
S'CGAATT'
p2884
aI587
aI75
aa(lp2885
S'GGCGAC'
p2886
aI169
aI24
aa(lp2887
S'TAGGAC'
p2888
aI284
aI9
aa(lp2889
S'ATCTGA'
p2890
aI717
aI94
aa(lp2891
S'GTGCTT'
p2892
aI667
aI59
aa(lp2893
S'ATCTGC'
p2894
aI619
aI80
aa(lp2895
S'CGAATA'
p2896
aI715
aI69
aa(lp2897
S'CGAATG'
p2898
aI427
aI46
aa(lp2899
S'ATCTGG'
p2900
aI436
aI59
aa(lp2901
S'ATCATA'
p2902
aI1381
aI159
aa(lp2903
S'GATAGC'
p2904
aI402
aI24
aa(lp2905
S'AAGCAG'
p2906
aI837
aI65
aa(lp2907
S'GATAGA'
p2908
aI834
aI95
aa(lp2909
S'AAGCAA'
p2910
aI1466
aI114
aa(lp2911
S'CAAACT'
p2912
aI847
aI89
aa(lp2913
S'ATCATG'
p2914
aI717
aI73
aa(lp2915
S'TTTACC'
p2916
aI1041
aI102
aa(lp2917
S'GTTATG'
p2918
aI638
aI41
aa(lp2919
S'CTAGGT'
p2920
aI232
aI11
aa(lp2921
S'CATTTA'
p2922
aI1452
aI118
aa(lp2923
S'ACGCAT'
p2924
aI483
aI37
aa(lp2925
S'CATTTG'
p2926
aI969
aI95
aa(lp2927
S'GTTATA'
p2928
aI1268
aI128
aa(lp2929
S'CAAACA'
p2930
aI1150
aI107
aa(lp2931
S'AAGCAT'
p2932
aI945
aI77
aa(lp2933
S'CAAACC'
p2934
aI543
aI62
aa(lp2935
S'CTCGGG'
p2936
aI124
aI19
aa(lp2937
S'ATCATT'
p2938
aI1575
aI164
aa(lp2939
S'GATAGT'
p2940
aI699
aI72
aa(lp2941
S'ACGCAG'
p2942
aI297
aI21
aa(lp2943
S'CTAGGG'
p2944
aI170
aI9
aa(lp2945
S'GTTATT'
p2946
aI1578
aI131
aa(lp2947
S'CTAGGC'
p2948
aI212
aI15
aa(lp2949
S'CATTTT'
p2950
aI2661
aI189
aa(lp2951
S'CTAGGA'
p2952
aI299
aI17
aa(lp2953
S'AAGTTT'
p2954
aI1713
aI114
aa(lp2955
S'TACAGT'
p2956
aI839
aI68
aa(lp2957
S'CTAACG'
p2958
aI324
aI19
aa(lp2959
S'CTAAGG'
p2960
aI344
aI32
aa(lp2961
S'CTAAGA'
p2962
aI664
aI61
aa(lp2963
S'GGGGCT'
p2964
aI128
aI17
aa(lp2965
S'TACAGG'
p2966
aI433
aI45
aa(lp2967
S'AAGTTG'
p2968
aI905
aI69
aa(lp2969
S'GGATGC'
p2970
aI309
aI25
aa(lp2971
S'AAGTTA'
p2972
aI1175
aI70
aa(lp2973
S'TACAGC'
p2974
aI454
aI22
aa(lp2975
S'AAGTTC'
p2976
aI917
aI89
aa(lp2977
S'TACAGA'
p2978
aI823
aI70
aa(lp2979
S'AGTAAA'
p2980
aI1925
aI173
aa(lp2981
S'CGGGGG'
p2982
aI108
aI13
aa(lp2983
S'GGGGCA'
p2984
aI220
aI34
aa(lp2985
S'GGGGCG'
p2986
aI153
aI20
aa(lp2987
S'CCATGG'
p2988
aI228
aI11
aa(lp2989
S'TATATC'
p2990
aI1669
aI166
aa(lp2991
S'GAGGGG'
p2992
aI268
aI31
aa(lp2993
S'TATATA'
p2994
aI8616
aI1088
aa(lp2995
S'TATATG'
p2996
aI2184
aI205
aa(lp2997
S'ACATCG'
p2998
aI353
aI35
aa(lp2999
S'GCTGGG'
p3000
aI170
aI20
aa(lp3001
S'GCCCAG'
p3002
aI229
aI24
aa(lp3003
S'GGGGCC'
p3004
aI162
aI14
aa(lp3005
S'TATATT'
p3006
aI4141
aI381
aa(lp3007
S'TGATGG'
p3008
aI561
aI89
aa(lp3009
S'CATATG'
p3010
aI971
aI105
aa(lp3011
S'ATGAGT'
p3012
aI689
aI75
aa(lp3013
S'GCCCAC'
p3014
aI191
aI8
aa(lp3015
S'TGATGA'
p3016
aI1266
aI203
aa(lp3017
S'AGCATG'
p3018
aI494
aI58
aa(lp3019
S'TGTTTA'
p3020
aI1590
aI203
aa(lp3021
S'ACTCTT'
p3022
aI903
aI76
aa(lp3023
S'TGTTTC'
p3024
aI1359
aI143
aa(lp3025
S'CACATA'
p3026
aI987
aI75
aa(lp3027
S'TTAATT'
p3028
aI2476
aI189
aa(lp3029
S'CACATG'
p3030
aI515
aI65
aa(lp3031
S'TTTCAT'
p3032
aI2368
aI195
aa(lp3033
S'ATGAGA'
p3034
aI1095
aI176
aa(lp3035
S'TGATGT'
p3036
aI908
aI120
aa(lp3037
S'ATGAGG'
p3038
aI547
aI49
aa(lp3039
S'TTAATA'
p3040
aI2665
aI190
aa(lp3041
S'ACTCTG'
p3042
aI355
aI24
aa(lp3043
S'TTTCAA'
p3044
aI2612
aI213
aa(lp3045
S'ACTCTA'
p3046
aI584
aI55
aa(lp3047
S'TGCCAA'
p3048
aI715
aI74
aa(lp3049
S'CACATT'
p3050
aI948
aI90
aa(lp3051
S'TTAATG'
p3052
aI1215
aI88
aa(lp3053
S'AAATTC'
p3054
aI1610
aI161
aa(lp3055
S'AAATTA'
p3056
aI2730
aI164
aa(lp3057
S'AAATTG'
p3058
aI1658
aI108
aa(lp3059
S'TTCAAT'
p3060
aI1893
aI179
aa(lp3061
S'TCTTGT'
p3062
aI1245
aI89
aa(lp3063
S'CGTACC'
p3064
aI315
aI59
aa(lp3065
S'GATGGC'
p3066
aI324
aI28
aa(lp3067
S'TTAATC'
p3068
aI961
aI61
aa(lp3069
S'CTTCGC'
p3070
aI350
aI28
aa(lp3071
S'AAATTT'
p3072
aI3826
aI480
aa(lp3073
S'CTTAGT'
p3074
aI653
aI51
aa(lp3075
S'GTCTAT'
p3076
aI580
aI69
aa(lp3077
S'GGGAAC'
p3078
aI273
aI12
aa(lp3079
S'GGTGCG'
p3080
aI208
aI18
aa(lp3081
S'GCGTAT'
p3082
aI486
aI37
aa(lp3083
S'GGGAAG'
p3084
aI534
aI36
aa(lp3085
S'GGTGCC'
p3086
aI212
aI15
aa(lp3087
S'TCGTCC'
p3088
aI222
aI23
aa(lp3089
S'GGTGCA'
p3090
aI404
aI52
aa(lp3091
S'AGAGCG'
p3092
aI330
aI26
aa(lp3093
S'GCGACT'
p3094
aI273
aI43
aa(lp3095
S'AGAGCC'
p3096
aI314
aI11
aa(lp3097
S'AGAGCA'
p3098
aI621
aI34
aa(lp3099
S'GCGTAG'
p3100
aI248
aI20
aa(lp3101
S'GGTGCT'
p3102
aI337
aI34
aa(lp3103
S'CTTGTG'
p3104
aI521
aI34
aa(lp3105
S'GGGAAT'
p3106
aI491
aI52
aa(lp3107
S'GCGACG'
p3108
aI202
aI36
aa(lp3109
S'AGAGCT'
p3110
aI496
aI21
aa(lp3111
S'GCGACA'
p3112
aI310
aI38
aa(lp3113
S'TATCGG'
p3114
aI361
aI67
aa(lp3115
S'GCGACC'
p3116
aI120
aI13
aa(lp3117
S'TCCGGC'
p3118
aI190
aI13
aa(lp3119
S'GCAGGA'
p3120
aI419
aI29
aa(lp3121
S'GCAGGC'
p3122
aI244
aI15
aa(lp3123
S'CCCGCC'
p3124
aI190
aI24
aa(lp3125
S'GCAGGG'
p3126
aI221
aI20
aa(lp3127
S'CCGTGA'
p3128
aI238
aI16
aa(lp3129
S'GCTCGA'
p3130
aI254
aI28
aa(lp3131
S'GCTCGG'
p3132
aI169
aI26
aa(lp3133
S'TATTCT'
p3134
aI2052
aI188
aa(lp3135
S'CCGTGG'
p3136
aI199
aI28
aa(lp3137
S'ACTTAC'
p3138
aI698
aI56
aa(lp3139
S'AAATAC'
p3140
aI1944
aI194
aa(lp3141
S'GCAGGT'
p3142
aI342
aI38
aa(lp3143
S'CTTCGT'
p3144
aI571
aI34
aa(lp3145
S'TATTCC'
p3146
aI996
aI110
aa(lp3147
S'GGCGAG'
p3148
aI150
aI12
aa(lp3149
S'TATTCA'
p3150
aI1668
aI151
aa(lp3151
S'CAATTA'
p3152
aI1407
aI144
aa(lp3153
S'TATTCG'
p3154
aI688
aI67
aa(lp3155
S'GCTCGT'
p3156
aI218
aI18
aa(lp3157
S'TGTAGA'
p3158
aI798
aI80
aa(lp3159
S'GGCTCA'
p3160
aI311
aI26
aa(lp3161
S'AGCATT'
p3162
aI843
aI64
aa(lp3163
S'TTTACA'
p3164
aI1659
aI184
aa(lp3165
S'ACCGGG'
p3166
aI143
aI18
aa(lp3167
S'TGTAGG'
p3168
aI423
aI28
aa(lp3169
S'GGCTCG'
p3170
aI169
aI14
aa(lp3171
S'TTCGGA'
p3172
aI392
aI35
aa(lp3173
S'TTCGGC'
p3174
aI348
aI31
aa(lp3175
S'CTTTAC'
p3176
aI977
aI60
aa(lp3177
S'GTCTAC'
p3178
aI271
aI17
aa(lp3179
S'TTCGGG'
p3180
aI294
aI40
aa(lp3181
S'CACGAG'
p3182
aI215
aI38
aa(lp3183
S'GGCTCT'
p3184
aI300
aI14
aa(lp3185
S'TGTAGT'
p3186
aI848
aI73
aa(lp3187
S'TTTACT'
p3188
aI1936
aI172
aa(lp3189
S'AGCATA'
p3190
aI810
aI62
aa(lp3191
S'AGACCT'
p3192
aI361
aI41
aa(lp3193
S'TTCGGT'
p3194
aI484
aI71
aa(lp3195
S'GTTTAT'
p3196
aI1672
aI203
aa(lp3197
S'GGGGAG'
p3198
aI244
aI26
aa(lp3199
S'CGCTAC'
p3200
aI275
aI29
aa(lp3201
S'TGCTTG'
p3202
aI638
aI51
aa(lp3203
S'GTTTAA'
p3204
aI1139
aI94
aa(lp3205
S'GAGGTG'
p3206
aI394
aI59
aa(lp3207
S'AACTTG'
p3208
aI792
aI40
aa(lp3209
S'GTTTAG'
p3210
aI671
aI76
aa(lp3211
S'TCCAGA'
p3212
aI435
aI57
aa(lp3213
S'CTGGCT'
p3214
aI340
aI45
aa(lp3215
S'AGGCGG'
p3216
aI229
aI13
aa(lp3217
S'AGGCGA'
p3218
aI307
aI27
aa(lp3219
S'AGGCGC'
p3220
aI244
aI28
aa(lp3221
S'AGGAGT'
p3222
aI431
aI51
aa(lp3223
S'ACAGCC'
p3224
aI308
aI49
aa(lp3225
S'ACAGCA'
p3226
aI679
aI43
aa(lp3227
S'GAGGTC'
p3228
aI257
aI30
aa(lp3229
S'ACAGCG'
p3230
aI320
aI21
aa(lp3231
S'AGGAGC'
p3232
aI337
aI28
aa(lp3233
S'GTCGGA'
p3234
aI159
aI16
aa(lp3235
S'AGGAGA'
p3236
aI773
aI76
aa(lp3237
S'CTGGCG'
p3238
aI228
aI27
aa(lp3239
S'AGGAGG'
p3240
aI386
aI24
aa(lp3241
S'CTGGCA'
p3242
aI345
aI16
aa(lp3243
S'GTCGGG'
p3244
aI100
aI8
aa(lp3245
S'GCGCCC'
p3246
aI133
aI11
aa(lp3247
S'GCATCG'
p3248
aI328
aI48
aa(lp3249
S'ACAGCT'
p3250
aI546
aI49
aa(lp3251
S'GCTCTC'
p3252
aI338
aI10
aa(lp3253
S'ATTGGT'
p3254
aI920
aI129
aa(lp3255
S'AATTTT'
p3256
aI4166
aI416
aa(lp3257
S'TGTCAA'
p3258
aI799
aI52
aa(lp3259
S'TGTCAC'
p3260
aI519
aI63
aa(lp3261
S'CCCTCT'
p3262
aI460
aI50
aa(lp3263
S'AACCTT'
p3264
aI879
aI69
aa(lp3265
S'AAACAA'
p3266
aI2855
aI336
aa(lp3267
S'ATTGGG'
p3268
aI424
aI46
aa(lp3269
S'AATTTA'
p3270
aI2334
aI197
aa(lp3271
S'AATTTC'
p3272
aI1915
aI183
aa(lp3273
S'ATTGGC'
p3274
aI572
aI74
aa(lp3275
S'AACGCA'
p3276
aI557
aI46
aa(lp3277
S'AATTTG'
p3278
aI1578
aI135
aa(lp3279
S'CCCTCA'
p3280
aI337
aI34
aa(lp3281
S'AAACAT'
p3282
aI1678
aI138
aa(lp3283
S'TGTCAT'
p3284
aI945
aI111
aa(lp3285
S'CCCTCG'
p3286
aI164
aI17
aa(lp3287
S'GAGGTT'
p3288
aI496
aI53
aa(lp3289
S'GGCGTT'
p3290
aI348
aI41
aa(lp3291
S'CTGACG'
p3292
aI263
aI34
aa(lp3293
S'TGACCA'
p3294
aI453
aI52
aa(lp3295
S'CATTCT'
p3296
aI983
aI92
aa(lp3297
S'TAAATC'
p3298
aI1104
aI137
aa(lp3299
S'TGACCG'
p3300
aI222
aI29
aa(lp3301
S'CATTCG'
p3302
aI419
aI35
aa(lp3303
S'TGACCT'
p3304
aI404
aI44
aa(lp3305
S'CATTCA'
p3306
aI1005
aI89
aa(lp3307
S'TAAATG'
p3308
aI1436
aI129
aa(lp3309
S'ACAAAT'
p3310
aI1676
aI175
aa(lp3311
S'GATTAA'
p3312
aI980
aI66
aa(lp3313
S'GTAGGC'
p3314
aI236
aI10
aa(lp3315
S'GATTAC'
p3316
aI531
aI42
aa(lp3317
S'GTAGGA'
p3318
aI450
aI36
aa(lp3319
S'GTAGGG'
p3320
aI251
aI10
aa(lp3321
S'GATTAG'
p3322
aI532
aI71
aa(lp3323
S'GGCTTT'
p3324
aI653
aI53
aa(lp3325
S'ACAAAC'
p3326
aI938
aI95
aa(lp3327
S'ACAAAA'
p3328
aI2939
aI300
aa(lp3329
S'ACAAAG'
p3330
aI1160
aI137
aa(lp3331
S'GCGGGC'
p3332
aI173
aI9
aa(lp3333
S'GTCGGT'
p3334
aI191
aI15
aa(lp3335
S'GCGGGA'
p3336
aI202
aI12
aa(lp3337
S'GCGGGG'
p3338
aI188
aI36
aa(lp3339
S'GATTAT'
p3340
aI1166
aI102
aa(lp3341
S'GTAGGT'
p3342
aI406
aI47
aa(lp3343
S'CCACGA'
p3344
aI289
aI36
aa(lp3345
S'CAATAC'
p3346
aI903
aI101
aa(lp3347
S'TAATGA'
p3348
aI1529
aI164
aa(lp3349
S'GATGTT'
p3350
aI755
aI69
aa(lp3351
S'TAATGC'
p3352
aI732
aI65
aa(lp3353
S'GGGATG'
p3354
aI276
aI41
aa(lp3355
S'GCCCTT'
p3356
aI513
aI48
aa(lp3357
S'CAATAA'
p3358
aI1795
aI181
aa(lp3359
S'GCCCTC'
p3360
aI230
aI12
aa(lp3361
S'GATGTG'
p3362
aI513
aI53
aa(lp3363
S'GCCCTA'
p3364
aI219
aI16
aa(lp3365
S'GATGTA'
p3366
aI826
aI112
aa(lp3367
S'TAATGT'
p3368
aI1322
aI114
aa(lp3369
S'GATGTC'
p3370
aI434
aI62
aa(lp3371
S'CAATAG'
p3372
aI939
aI111
aa(lp3373
S'TGAAAT'
p3374
aI1955
aI213
aa(lp3375
S'GCTCTT'
p3376
aI742
aI37
aa(lp3377
S'TTCTAA'
p3378
aI1307
aI127
aa(lp3379
S'ATCCGT'
p3380
aI379
aI49
aa(lp3381
S'TTCTAC'
p3382
aI956
aI63
aa(lp3383
S'TGAAAA'
p3384
aI3401
aI422
aa(lp3385
S'TGAAAC'
p3386
aI1131
aI164
aa(lp3387
S'TGAAAG'
p3388
aI1335
aI97
aa(lp3389
S'TTCTAT'
p3390
aI1833
aI154
aa(lp3391
S'ATCCGC'
p3392
aI284
aI42
aa(lp3393
S'ATCCGA'
p3394
aI332
aI37
aa(lp3395
S'ATCCGG'
p3396
aI201
aI19
aa(lp3397
S'TGGCTC'
p3398
aI340
aI20
aa(lp3399
S'TGGCTA'
p3400
aI446
aI36
aa(lp3401
S'GCTACC'
p3402
aI266
aI24
aa(lp3403
S'TGGCTG'
p3404
aI377
aI50
aa(lp3405
S'AGGCGT'
p3406
aI264
aI28
aa(lp3407
S'AGTTGT'
p3408
aI753
aI35
aa(lp3409
S'AGCTAT'
p3410
aI680
aI52
aa(lp3411
S'CTTACG'
p3412
aI399
aI22
aa(lp3413
S'ATTAGT'
p3414
aI1146
aI118
aa(lp3415
S'GTCGGC'
p3416
aI129
aI10
aa(lp3417
S'TGGCTT'
p3418
aI668
aI87
aa(lp3419
S'AGTTGG'
p3420
aI498
aI36
aa(lp3421
S'AGCTAA'
p3422
aI647
aI41
aa(lp3423
S'ACGCCG'
p3424
aI180
aI16
aa(lp3425
S'AGCTAC'
p3426
aI409
aI10
aa(lp3427
S'AGTTGC'
p3428
aI495
aI23
aa(lp3429
S'AGTTGA'
p3430
aI1011
aI129
aa(lp3431
S'AGCTAG'
p3432
aI431
aI51
aa(lp3433
S'TCCTAG'
p3434
aI302
aI13
aa(lp3435
S'CTAATT'
p3436
aI1185
aI132
aa(lp3437
S'CAGTGT'
p3438
aI477
aI41
aa(lp3439
S'TAACAA'
p3440
aI1680
aI144
aa(lp3441
S'TCAGGT'
p3442
aI445
aI52
aa(lp3443
S'TCAAGG'
p3444
aI552
aI53
aa(lp3445
S'CTGGCC'
p3446
aI235
aI29
aa(lp3447
S'TCAAGC'
p3448
aI509
aI26
aa(lp3449
S'TCAAGA'
p3450
aI1119
aI83
aa(lp3451
S'GCACCA'
p3452
aI401
aI36
aa(lp3453
S'CAGTGC'
p3454
aI298
aI23
aa(lp3455
S'CTAATC'
p3456
aI536
aI84
aa(lp3457
S'CAGTGA'
p3458
aI566
aI49
aa(lp3459
S'CAGTGG'
p3460
aI344
aI18
aa(lp3461
S'CTAATG'
p3462
aI630
aI59
aa(lp3463
S'TCAAGT'
p3464
aI814
aI59
aa(lp3465
S'GCACAT'
p3466
aI592
aI46
aa(lp3467
S'TCAGGA'
p3468
aI491
aI62
aa(lp3469
S'TCAGGC'
p3470
aI290
aI26
aa(lp3471
S'CGAGCT'
p3472
aI253
aI29
aa(lp3473
S'CGTTGG'
p3474
aI298
aI32
aa(lp3475
S'GATCAG'
p3476
aI410
aI46
aa(lp3477
S'GTTCAT'
p3478
aI781
aI59
aa(lp3479
S'TTCCCT'
p3480
aI977
aI90
aa(lp3481
S'CGAGCG'
p3482
aI152
aI18
aa(lp3483
S'CGAGCA'
p3484
aI270
aI31
aa(lp3485
S'CGCAGC'
p3486
aI213
aI15
aa(lp3487
S'CGAGCC'
p3488
aI182
aI19
aa(lp3489
S'TTCCCA'
p3490
aI637
aI34
aa(lp3491
S'TTCCCC'
p3492
aI528
aI58
aa(lp3493
S'GTTCAC'
p3494
aI448
aI40
aa(lp3495
S'GTTCAA'
p3496
aI965
aI77
aa(lp3497
S'GATCAC'
p3498
aI373
aI41
aa(lp3499
S'GGACCT'
p3500
aI227
aI17
aa(lp3501
S'TACATG'
p3502
aI769
aI83
aa(lp3503
S'AAGTAC'
p3504
aI952
aI123
aa(lp3505
S'AAGTAA'
p3506
aI1831
aI102
aa(lp3507
S'TACATC'
p3508
aI820
aI128
aa(lp3509
S'AAGTAG'
p3510
aI845
aI25
aa(lp3511
S'TACATA'
p3512
aI2365
aI264
aa(lp3513
S'GCACAC'
p3514
aI384
aI30
aa(lp3515
S'GGACCG'
p3516
aI120
aI16
aa(lp3517
S'AACGCT'
p3518
aI441
aI33
aa(lp3519
S'GGACCA'
p3520
aI223
aI25
aa(lp3521
S'CTTTCT'
p3522
aI1764
aI83
aa(lp3523
S'GGACCC'
p3524
aI213
aI20
aa(lp3525
S'CACACG'
p3526
aI306
aI21
aa(lp3527
S'TACATT'
p3528
aI1549
aI135
aa(lp3529
S'CACACC'
p3530
aI424
aI30
aa(lp3531
S'CTGCAT'
p3532
aI568
aI48
aa(lp3533
S'AAGTAT'
p3534
aI1523
aI107
aa(lp3535
S'ACGGTC'
p3536
aI205
aI35
aa(lp3537
S'TCTGCC'
p3538
aI373
aI13
aa(lp3539
S'TCTGCA'
p3540
aI648
aI72
aa(lp3541
S'TCTGCG'
p3542
aI354
aI22
aa(lp3543
S'TAGATT'
p3544
aI1029
aI119
aa(lp3545
S'ATTGCC'
p3546
aI585
aI53
aa(lp3547
S'CCCGTC'
p3548
aI178
aI8
aa(lp3549
S'TTAAGG'
p3550
aI687
aI88
aa(lp3551
S'CCCGTA'
p3552
aI249
aI26
aa(lp3553
S'TTAAGA'
p3554
aI1198
aI102
aa(lp3555
S'CCCGTG'
p3556
aI141
aI13
aa(lp3557
S'TTAAGC'
p3558
aI631
aI24
aa(lp3559
S'TTACGT'
p3560
aI808
aI77
aa(lp3561
S'TAGATC'
p3562
aI510
aI69
aa(lp3563
S'AAACAG'
p3564
aI1280
aI106
aa(lp3565
S'AGTAAT'
p3566
aI1388
aI95
aa(lp3567
S'TTTCGC'
p3568
aI691
aI88
aa(lp3569
S'TAGATG'
p3570
aI854
aI113
aa(lp3571
S'TCTGCT'
p3572
aI679
aI55
aa(lp3573
S'TTACGC'
p3574
aI445
aI41
aa(lp3575
S'TTAAGT'
p3576
aI1054
aI94
aa(lp3577
S'TTACGA'
p3578
aI641
aI68
aa(lp3579
S'TTACGG'
p3580
aI363
aI22
aa(lp3581
S'CCCGTT'
p3582
aI302
aI22
aa(lp3583
S'AGTGAC'
p3584
aI484
aI47
aa(lp3585
S'AGTGAA'
p3586
aI1098
aI111
aa(lp3587
S'AGTGAG'
p3588
aI500
aI43
aa(lp3589
S'GCGGTC'
p3590
aI129
aI6
aa(lp3591
S'CGGGCG'
p3592
aI125
aI13
aa(lp3593
S'AAACAC'
p3594
aI970
aI83
aa(lp3595
S'TAAGAG'
p3596
aI763
aI58
aa(lp3597
S'CCTGAT'
p3598
aI438
aI66
aa(lp3599
S'TAAGAA'
p3600
aI1886
aI159
aa(lp3601
S'CGGGCA'
p3602
aI190
aI16
aa(lp3603
S'TAAGAC'
p3604
aI540
aI43
aa(lp3605
S'ATTTAT'
p3606
aI3451
aI332
aa(lp3607
S'AGTGAT'
p3608
aI854
aI97
aa(lp3609
S'CTTTCC'
p3610
aI1061
aI70
aa(lp3611
S'TAAGAT'
p3612
aI1048
aI87
aa(lp3613
S'CCTGAA'
p3614
aI582
aI48
aa(lp3615
S'CGGGCT'
p3616
aI137
aI18
aa(lp3617
S'CCTGAG'
p3618
aI240
aI31
aa(lp3619
S'GTTAGG'
p3620
aI316
aI28
aa(lp3621
S'AACGCG'
p3622
aI336
aI71
aa(lp3623
S'TATACT'
p3624
aI1636
aI159
aa(lp3625
S'GTTAGC'
p3626
aI377
aI29
aa(lp3627
S'GTTAGA'
p3628
aI592
aI47
aa(lp3629
S'TGTAGC'
p3630
aI462
aI23
aa(lp3631
S'ACCCCC'
p3632
aI197
aI28
aa(lp3633
S'GACATC'
p3634
aI418
aI68
aa(lp3635
S'TATACG'
p3636
aI973
aI119
aa(lp3637
S'GTTAGT'
p3638
aI651
aI64
aa(lp3639
S'TATACC'
p3640
aI819
aI69
aa(lp3641
S'TATACA'
p3642
aI2230
aI271
aa(lp3643
S'AACGCC'
p3644
aI322
aI41
aa(lp3645
S'ACTAGT'
p3646
aI738
aI76
aa(lp3647
S'TTTATT'
p3648
aI4637
aI380
aa(lp3649
S'GTAATA'
p3650
aI1667
aI168
aa(lp3651
S'ATTGGA'
p3652
aI777
aI91
aa(lp3653
S'GTAATC'
p3654
aI548
aI47
aa(lp3655
S'TCTAAC'
p3656
aI577
aI61
aa(lp3657
S'CGTTCT'
p3658
aI543
aI47
aa(lp3659
S'TCTAAA'
p3660
aI1283
aI144
aa(lp3661
S'CGGATC'
p3662
aI205
aI26
aa(lp3663
S'CCACCA'
p3664
aI500
aI57
aa(lp3665
S'CCACCC'
p3666
aI287
aI59
aa(lp3667
S'ATTACT'
p3668
aI1388
aI119
aa(lp3669
S'TTTATG'
p3670
aI1665
aI152
aa(lp3671
S'GTAATT'
p3672
aI1383
aI134
aa(lp3673
S'GTAACG'
p3674
aI402
aI32
aa(lp3675
S'TTTATC'
p3676
aI1655
aI164
aa(lp3677
S'ACTAGC'
p3678
aI383
aI26
aa(lp3679
S'TTTATA'
p3680
aI3701
aI461
aa(lp3681
S'ACTAGA'
p3682
aI646
aI63
aa(lp3683
S'CCACCT'
p3684
aI336
aI28
aa(lp3685
S'CGTTCG'
p3686
aI239
aI19
aa(lp3687
S'TCGTTG'
p3688
aI513
aI54
aa(lp3689
S'CGTTCA'
p3690
aI498
aI50
aa(lp3691
S'CGTTCC'
p3692
aI300
aI31
aa(lp3693
S'TCTAAT'
p3694
aI1102
aI150
aa(lp3695
S'CTTTGT'
p3696
aI1154
aI107
aa(lp3697
S'ATTTAA'
p3698
aI2337
aI202
aa(lp3699
S'ACTGGA'
p3700
aI472
aI51
aa(lp3701
S'ACTGGC'
p3702
aI311
aI24
aa(lp3703
S'TAGTCC'
p3704
aI263
aI19
aa(lp3705
S'GTGACC'
p3706
aI259
aI35
aa(lp3707
S'TAGTCA'
p3708
aI657
aI78
aa(lp3709
S'GTGACA'
p3710
aI576
aI48
aa(lp3711
S'TAGTCG'
p3712
aI308
aI39
aa(lp3713
S'GTGACG'
p3714
aI276
aI32
aa(lp3715
S'ATTTAG'
p3716
aI1205
aI112
aa(lp3717
S'ACTGGT'
p3718
aI493
aI45
aa(lp3719
S'CTTTGG'
p3720
aI520
aI38
aa(lp3721
S'CCTATG'
p3722
aI336
aI34
aa(lp3723
S'CTTTGC'
p3724
aI752
aI40
aa(lp3725
S'CTTTGA'
p3726
aI1027
aI86
aa(lp3727
S'GTGACT'
p3728
aI431
aI53
aa(lp3729
S'TAGTCT'
p3730
aI507
aI41
aa(lp3731
S'GTGCAC'
p3732
aI370
aI50
aa(lp3733
S'GCGCTT'
p3734
aI469
aI39
aa(lp3735
S'GTGCAA'
p3736
aI634
aI71
aa(lp3737
S'CGACGA'
p3738
aI187
aI24
aa(lp3739
S'ACCTAA'
p3740
aI626
aI77
aa(lp3741
S'CGACGC'
p3742
aI183
aI28
aa(lp3743
S'CGAAGT'
p3744
aI425
aI25
aa(lp3745
S'CCGCAG'
p3746
aI232
aI25
aa(lp3747
S'CCGCAA'
p3748
aI313
aI21
aa(lp3749
S'ATTGTG'
p3750
aI882
aI106
aa(lp3751
S'CCGCAC'
p3752
aI251
aI26
aa(lp3753
S'ACGTGG'
p3754
aI270
aI29
aa(lp3755
S'ACCTAT'
p3756
aI587
aI44
aa(lp3757
S'ATTACA'
p3758
aI1387
aI157
aa(lp3759
S'CGAAGA'
p3760
aI670
aI63
aa(lp3761
S'CCCCGT'
p3762
aI169
aI17
aa(lp3763
S'CGAAGG'
p3764
aI338
aI24
aa(lp3765
S'GCGCTC'
p3766
aI174
aI18
aa(lp3767
S'GTGCAT'
p3768
aI563
aI57
aa(lp3769
S'GCGCTA'
p3770
aI310
aI37
aa(lp3771
S'CCGCAT'
p3772
aI315
aI25
aa(lp3773
S'ATTACC'
p3774
aI889
aI103
aa(lp3775
S'GAAGAT'
p3776
aI1130
aI136
aa(lp3777
S'GGATCT'
p3778
aI336
aI40
aa(lp3779
S'TCGGAA'
p3780
aI497
aI69
aa(lp3781
S'TCGGAC'
p3782
aI170
aI20
aa(lp3783
S'GAATCT'
p3784
aI775
aI116
aa(lp3785
S'TCGGAG'
p3786
aI209
aI31
aa(lp3787
S'GGATCG'
p3788
aI208
aI26
aa(lp3789
S'GAAGAG'
p3790
aI973
aI67
aa(lp3791
S'GAAGAA'
p3792
aI2246
aI217
aa(lp3793
S'GTTCGG'
p3794
aI244
aI30
aa(lp3795
S'GAAGAC'
p3796
aI591
aI38
aa(lp3797
S'GGATCA'
p3798
aI358
aI52
aa(lp3799
S'GAATCA'
p3800
aI710
aI87
aa(lp3801
S'GAATCC'
p3802
aI553
aI93
aa(lp3803
S'TCGGAT'
p3804
aI312
aI44
aa(lp3805
S'GAATCG'
p3806
aI384
aI62
aa(lp3807
S'ATGGTC'
p3808
aI316
aI38
aa(lp3809
S'CAGATG'
p3810
aI476
aI55
aa(lp3811
S'CTCGAT'
p3812
aI411
aI65
aa(lp3813
S'TGACCC'
p3814
aI238
aI42
aa(lp3815
S'ACGCCA'
p3816
aI337
aI43
aa(lp3817
S'CAGATC'
p3818
aI422
aI70
aa(lp3819
S'CTATCC'
p3820
aI413
aI39
aa(lp3821
S'CAGATA'
p3822
aI812
aI82
aa(lp3823
S'CTATCT'
p3824
aI724
aI51
aa(lp3825
S'CAGATT'
p3826
aI788
aI114
aa(lp3827
S'CTCGAC'
p3828
aI158
aI7
aa(lp3829
S'CTCGAA'
p3830
aI565
aI83
aa(lp3831
S'TTGCGC'
p3832
aI352
aI44
aa(lp3833
S'GCTATT'
p3834
aI1000
aI73
aa(lp3835
S'TGCGTC'
p3836
aI288
aI47
aa(lp3837
S'GCGTGG'
p3838
aI184
aI16
aa(lp3839
S'AATGGT'
p3840
aI796
aI55
aa(lp3841
S'GTTACG'
p3842
aI358
aI24
aa(lp3843
S'CTACGT'
p3844
aI380
aI32
aa(lp3845
S'AGCCAC'
p3846
aI325
aI41
aa(lp3847
S'AATGGA'
p3848
aI1166
aI114
aa(lp3849
S'AATGGG'
p3850
aI538
aI57
aa(lp3851
S'CACTCT'
p3852
aI468
aI28
aa(lp3853
S'CAACTC'
p3854
aI394
aI34
aa(lp3855
S'ACGCCC'
p3856
aI158
aI17
aa(lp3857
S'AATAGC'
p3858
aI958
aI78
aa(lp3859
S'GAGATC'
p3860
aI384
aI54
aa(lp3861
S'ATTTAC'
p3862
aI1596
aI232
aa(lp3863
S'CGTTAG'
p3864
aI282
aI18
aa(lp3865
S'AGCCAG'
p3866
aI330
aI42
aa(lp3867
S'TTGACA'
p3868
aI787
aI52
aa(lp3869
S'AAAAGT'
p3870
aI2547
aI223
aa(lp3871
S'GGAGGA'
p3872
aI401
aI19
aa(lp3873
S'AGCCAA'
p3874
aI680
aI66
aa(lp3875
S'TGGTAG'
p3876
aI532
aI49
aa(lp3877
S'CGCCAT'
p3878
aI311
aI22
aa(lp3879
S'GAGTGT'
p3880
aI408
aI54
aa(lp3881
S'AATAGG'
p3882
aI897
aI78
aa(lp3883
S'TGGTAC'
p3884
aI472
aI68
aa(lp3885
S'TGGTAA'
p3886
aI902
aI75
aa(lp3887
S'AAAAGG'
p3888
aI2279
aI173
aa(lp3889
S'GGAGGT'
p3890
aI357
aI59
aa(lp3891
S'AGCCAT'
p3892
aI515
aI36
aa(lp3893
S'AAAAGC'
p3894
aI1724
aI150
aa(lp3895
S'AAAAGA'
p3896
aI4208
aI338
aa(lp3897
S'TTGACT'
p3898
aI649
aI73
aa(lp3899
S'GAGTGG'
p3900
aI336
aI19
aa(lp3901
S'CGCCAG'
p3902
aI224
aI29
aa(lp3903
S'TGGTAT'
p3904
aI884
aI115
aa(lp3905
S'CGCCAA'
p3906
aI415
aI40
aa(lp3907
S'GAGTGC'
p3908
aI286
aI24
aa(lp3909
S'CGCCAC'
p3910
aI225
aI31
aa(lp3911
S'GAGTGA'
p3912
aI479
aI51
aa(lp3913
S'GCCAGG'
p3914
aI209
aI33
aa(lp3915
S'GCCAGA'
p3916
aI356
aI42
aa(lp3917
S'GCCAGC'
p3918
aI252
aI27
aa(lp3919
S'GCCCGT'
p3920
aI168
aI9
aa(lp3921
S'TACCGA'
p3922
aI393
aI54
aa(lp3923
S'TACCGC'
p3924
aI270
aI21
aa(lp3925
S'CTTCAT'
p3926
aI1132
aI119
aa(lp3927
S'GCCCGC'
p3928
aI150
aI12
aa(lp3929
S'GCCAGT'
p3930
aI290
aI22
aa(lp3931
S'GCCCGA'
p3932
aI143
aI16
aa(lp3933
S'GCCCGG'
p3934
aI156
aI22
aa(lp3935
S'CTTCAC'
p3936
aI598
aI55
aa(lp3937
S'CTTCAA'
p3938
aI1202
aI86
aa(lp3939
S'TACCGT'
p3940
aI453
aI35
aa(lp3941
S'TCCGAG'
p3942
aI271
aI45
aa(lp3943
S'TCCGAA'
p3944
aI430
aI43
aa(lp3945
S'TCCGAC'
p3946
aI188
aI19
aa(lp3947
S'AATTCA'
p3948
aI1439
aI153
aa(lp3949
S'AATTCC'
p3950
aI790
aI93
aa(lp3951
S'ATTAGG'
p3952
aI644
aI71
aa(lp3953
S'AATTCG'
p3954
aI603
aI62
aa(lp3955
S'TCCGAT'
p3956
aI345
aI56
aa(lp3957
S'TAGCGG'
p3958
aI262
aI16
aa(lp3959
S'TAGCGA'
p3960
aI397
aI23
aa(lp3961
S'TAGCGC'
p3962
aI322
aI44
aa(lp3963
S'GTCATC'
p3964
aI628
aI112
aa(lp3965
S'GTCATA'
p3966
aI703
aI80
aa(lp3967
S'GTCATG'
p3968
aI378
aI53
aa(lp3969
S'AGCAGG'
p3970
aI399
aI28
aa(lp3971
S'CCAGGT'
p3972
aI281
aI52
aa(lp3973
S'TTGGAA'
p3974
aI1211
aI122
aa(lp3975
S'TTGGAG'
p3976
aI482
aI47
aa(lp3977
S'AGCAGA'
p3978
aI689
aI42
aa(lp3979
S'GTCATT'
p3980
aI860
aI99
aa(lp3981
S'ACGACC'
p3982
aI207
aI40
aa(lp3983
S'CCAGGG'
p3984
aI178
aI34
aa(lp3985
S'AGCAGT'
p3986
aI660
aI43
aa(lp3987
S'CCAGGA'
p3988
aI308
aI34
aa(lp3989
S'CCAGGC'
p3990
aI175
aI13
aa(lp3991
S'TTGGAT'
p3992
aI742
aI80
aa(lp3993
S'ACGGTA'
p3994
aI434
aI37
aa(lp3995
S'CATCTG'
p3996
aI510
aI52
aa(lp3997
S'GATCGG'
p3998
aI210
aI30
aa(lp3999
S'CATCTA'
p4000
aI775
aI106
aa(lp4001
S'GATCGA'
p4002
aI356
aI47
aa(lp4003
S'CATCTC'
p4004
aI658
aI110
aa(lp4005
S'ATAGAA'
p4006
aI1895
aI141
aa(lp4007
S'TAACAG'
p4008
aI766
aI62
aa(lp4009
S'GATCGT'
p4010
aI322
aI34
aa(lp4011
S'CATCTT'
p4012
aI1052
aI90
aa(lp4013
S'ATAGAT'
p4014
aI1317
aI135
aa(lp4015
S'ACGGTT'
p4016
aI412
aI40
aa(lp4017
S'GTTCTT'
p4018
aI1303
aI127
aa(lp4019
S'ACATGA'
p4020
aI786
aI95
aa(lp4021
S'CGTAAT'
p4022
aI656
aI63
aa(lp4023
S'ACATGC'
p4024
aI497
aI64
aa(lp4025
S'GCCGTT'
p4026
aI380
aI51
aa(lp4027
S'AGGGAT'
p4028
aI399
aI64
aa(lp4029
S'TGGCGG'
p4030
aI224
aI16
aa(lp4031
S'CGTAAG'
p4032
aI371
aI23
aa(lp4033
S'AAACTG'
p4034
aI1049
aI97
aa(lp4035
S'ACATGT'
p4036
aI697
aI47
aa(lp4037
S'GTTCTA'
p4038
aI667
aI61
aa(lp4039
S'CGTAAA'
p4040
aI878
aI100
aa(lp4041
S'AGGGAG'
p4042
aI364
aI40
aa(lp4043
S'ACTCGG'
p4044
aI178
aI19
aa(lp4045
S'AGGGAC'
p4046
aI255
aI18
aa(lp4047
S'AGACGC'
p4048
aI256
aI12
aa(lp4049
S'AGGGAA'
p4050
aI875
aI75
aa(lp4051
S'CCCTTT'
p4052
aI1153
aI149
aa(lp4053
S'TGTTGT'
p4054
aI1189
aI116
aa(lp4055
S'TCTTGG'
p4056
aI720
aI72
aa(lp4057
S'GTTGTT'
p4058
aI1126
aI94
aa(lp4059
S'ATCCTT'
p4060
aI1033
aI139
aa(lp4061
S'TTGTCG'
p4062
aI431
aI36
aa(lp4063
S'TTGTCC'
p4064
aI549
aI54
aa(lp4065
S'TTGTCA'
p4066
aI848
aI67
aa(lp4067
S'ATCCTC'
p4068
aI594
aI79
aa(lp4069
S'GTTGTA'
p4070
aI799
aI59
aa(lp4071
S'ATCCTA'
p4072
aI608
aI54
aa(lp4073
S'GTTGTC'
p4074
aI498
aI64
aa(lp4075
S'ATCCTG'
p4076
aI433
aI48
aa(lp4077
S'GTTGTG'
p4078
aI459
aI36
aa(lp4079
S'TTGTCT'
p4080
aI992
aI91
aa(lp4081
S'ACGCGC'
p4082
aI219
aI28
aa(lp4083
S'CCACTG'
p4084
aI327
aI19
aa(lp4085
S'TGACTA'
p4086
aI635
aI91
aa(lp4087
S'AAGGGG'
p4088
aI498
aI94
aa(lp4089
S'TGACTC'
p4090
aI349
aI74
aa(lp4091
S'TGGGCA'
p4092
aI291
aI20
aa(lp4093
S'TGGGCG'
p4094
aI213
aI29
aa(lp4095
S'TGACTG'
p4096
aI428
aI42
aa(lp4097
S'AAGCCG'
p4098
aI304
aI34
aa(lp4099
S'AAGCCC'
p4100
aI331
aI19
aa(lp4101
S'AAGCCA'
p4102
aI688
aI72
aa(lp4103
S'CAAAAT'
p4104
aI2099
aI155
aa(lp4105
S'TGACTT'
p4106
aI772
aI100
aa(lp4107
S'TGGGCT'
p4108
aI297
aI19
aa(lp4109
S'CAAAAC'
p4110
aI1268
aI127
aa(lp4111
S'CAAAAA'
p4112
aI3531
aI287
aa(lp4113
S'AAGCCT'
p4114
aI517
aI36
aa(lp4115
S'CAAAAG'
p4116
aI1671
aI177
aa(lp4117
S'TCTGAC'
p4118
aI409
aI61
aa(lp4119
S'TCAATG'
p4120
aI931
aI101
aa(lp4121
S'AAACTT'
p4122
aI1647
aI122
aa(lp4123
S'ACCGTG'
p4124
aI240
aI29
aa(lp4125
S'TCAATC'
p4126
aI754
aI95
aa(lp4127
S'TCAATA'
p4128
aI1571
aI152
aa(lp4129
S'CAGTTC'
p4130
aI526
aI47
aa(lp4131
S'CAGTTA'
p4132
aI685
aI38
aa(lp4133
S'GACCCA'
p4134
aI237
aI31
aa(lp4135
S'GACCCC'
p4136
aI177
aI22
aa(lp4137
S'CTCTGT'
p4138
aI527
aI24
aa(lp4139
S'TCAATT'
p4140
aI1654
aI143
aa(lp4141
S'GGCCAG'
p4142
aI232
aI34
aa(lp4143
S'CTCTGC'
p4144
aI393
aI21
aa(lp4145
S'GACCCT'
p4146
aI274
aI50
aa(lp4147
S'CTCTGA'
p4148
aI408
aI33
aa(lp4149
S'ACAATC'
p4150
aI701
aI57
aa(lp4151
S'CTCTGG'
p4152
aI293
aI21
aa(lp4153
S'CAGTTT'
p4154
aI1091
aI95
aa(lp4155
S'GCGAAG'
p4156
aI367
aI22
aa(lp4157
S'CTACTC'
p4158
aI425
aI18
aa(lp4159
S'TGCTGG'
p4160
aI370
aI41
aa(lp4161
S'TGCTGA'
p4162
aI640
aI80
aa(lp4163
S'CCCTTG'
p4164
aI373
aI49
aa(lp4165
S'GCGAAA'
p4166
aI694
aI82
aa(lp4167
S'AGCTGC'
p4168
aI404
aI35
aa(lp4169
S'GCTGGT'
p4170
aI318
aI23
aa(lp4171
S'GTGATT'
p4172
aI820
aI72
aa(lp4173
S'ACGTTA'
p4174
aI629
aI37
aa(lp4175
S'TGCTGT'
p4176
aI665
aI50
aa(lp4177
S'GCGAAT'
p4178
aI398
aI54
aa(lp4179
S'TAATGG'
p4180
aI775
aI61
aa(lp4181
S'GTGATG'
p4182
aI639
aI109
aa(lp4183
S'CTACTG'
p4184
aI554
aI44
aa(lp4185
S'GTGATC'
p4186
aI381
aI46
aa(lp4187
S'GCTGGC'
p4188
aI243
aI26
aa(lp4189
S'GTGATA'
p4190
aI844
aI89
aa(lp4191
S'GCTGGA'
p4192
aI324
aI25
aa(lp4193
S'TGATAA'
p4194
aI1725
aI209
aa(lp4195
S'TGATAC'
p4196
aI761
aI82
aa(lp4197
S'TGATAG'
p4198
aI797
aI103
aa(lp4199
S'CTTGTT'
p4200
aI1297
aI98
aa(lp4201
S'GACGGT'
p4202
aI242
aI31
aa(lp4203
S'GCTAGG'
p4204
aI194
aI10
aa(lp4205
S'GCTAGA'
p4206
aI442
aI39
aa(lp4207
S'ATGAAT'
p4208
aI1641
aI206
aa(lp4209
S'ACGCGT'
p4210
aI306
aI111
aa(lp4211
S'AACGTT'
p4212
aI754
aI44
aa(lp4213
S'TGATAT'
p4214
aI1782
aI219
aa(lp4215
S'GCTAGT'
p4216
aI361
aI29
aa(lp4217
S'ATGAAC'
p4218
aI809
aI67
aa(lp4219
S'GACGGG'
p4220
aI145
aI8
aa(lp4221
S'ATGAAA'
p4222
aI2481
aI237
aa(lp4223
S'GACGGA'
p4224
aI281
aI28
aa(lp4225
S'CTTGTA'
p4226
aI890
aI74
aa(lp4227
S'GACGGC'
p4228
aI181
aI21
aa(lp4229
S'CTTGTC'
p4230
aI547
aI32
aa(lp4231
S'GCACTT'
p4232
aI644
aI37
aa(lp4233
S'CTACTT'
p4234
aI848
aI41
aa(lp4235
S'CCATAG'
p4236
aI392
aI33
aa(lp4237
S'GGTGAA'
p4238
aI719
aI77
aa(lp4239
S'GGTGAC'
p4240
aI341
aI44
aa(lp4241
S'GCGTCT'
p4242
aI235
aI16
aa(lp4243
S'GACTGT'
p4244
aI380
aI34
aa(lp4245
S'GGTGAG'
p4246
aI337
aI35
aa(lp4247
S'GGAATG'
p4248
aI555
aI47
aa(lp4249
S'CGTCCT'
p4250
aI229
aI12
aa(lp4251
S'GGAATC'
p4252
aI632
aI130
aa(lp4253
S'GGAATA'
p4254
aI1029
aI92
aa(lp4255
S'GCGTCA'
p4256
aI319
aI55
aa(lp4257
S'TAGTGG'
p4258
aI521
aI68
aa(lp4259
S'GGTGAT'
p4260
aI511
aI57
aa(lp4261
S'GCGTCG'
p4262
aI183
aI30
aa(lp4263
S'CGTCCG'
p4264
aI116
aI10
aa(lp4265
S'GGAATT'
p4266
aI758
aI87
aa(lp4267
S'CGTCCC'
p4268
aI171
aI17
aa(lp4269
S'CGTCCA'
p4270
aI198
aI13
aa(lp4271
S'GGCTCC'
p4272
aI199
aI11
aa(lp4273
S'CCGTAT'
p4274
aI433
aI55
aa(lp4275
S'GCCGTG'
p4276
aI178
aI23
aa(lp4277
S'GAAGTA'
p4278
aI1041
aI63
aa(lp4279
S'GAAGTG'
p4280
aI636
aI46
aa(lp4281
S'GCCGTA'
p4282
aI280
aI27
aa(lp4283
S'CCGTAC'
p4284
aI338
aI68
aa(lp4285
S'CCGTAA'
p4286
aI387
aI29
aa(lp4287
S'CCGTAG'
p4288
aI254
aI18
aa(lp4289
S'CTAACA'
p4290
aI654
aI88
aa(lp4291
S'CTAAAA'
p4292
aI1723
aI146
aa(lp4293
S'TTGGTG'
p4294
aI689
aI86
aa(lp4295
S'CCCTCC'
p4296
aI298
aI18
aa(lp4297
S'GAAGTT'
p4298
aI1014
aI94
aa(lp4299
S'GGCGCG'
p4300
aI176
aI27
aa(lp4301
S'ATGCCC'
p4302
aI303
aI24
aa(lp4303
S'TTAGTT'
p4304
aI1313
aI98
aa(lp4305
S'ATGCCA'
p4306
aI613
aI63
aa(lp4307
S'GGCGCC'
p4308
aI171
aI13
aa(lp4309
S'TATTAA'
p4310
aI2653
aI209
aa(lp4311
S'GGCGCA'
p4312
aI230
aI21
aa(lp4313
S'TATTAC'
p4314
aI1615
aI153
aa(lp4315
S'ACTATG'
p4316
aI620
aI55
aa(lp4317
S'CAACGG'
p4318
aI307
aI44
aa(lp4319
S'TTTAAG'
p4320
aI1296
aI129
aa(lp4321
S'ACTATC'
p4322
aI785
aI68
aa(lp4323
S'TTTAAA'
p4324
aI2732
aI193
aa(lp4325
S'ACTATA'
p4326
aI1257
aI121
aa(lp4327
S'TTTAAC'
p4328
aI1232
aI89
aa(lp4329
S'TATTAT'
p4330
aI4288
aI377
aa(lp4331
S'TTAGTG'
p4332
aI758
aI74
aa(lp4333
S'TGTAAT'
p4334
aI1502
aI177
aa(lp4335
S'TTAGTC'
p4336
aI531
aI67
aa(lp4337
S'ATGCCT'
p4338
aI529
aI49
aa(lp4339
S'TTAGTA'
p4340
aI1242
aI108
aa(lp4341
S'TTTAAT'
p4342
aI2590
aI186
aa(lp4343
S'ACTATT'
p4344
aI1646
aI147
aa(lp4345
S'GTCTCC'
p4346
aI275
aI36
aa(lp4347
S'GGGCAT'
p4348
aI278
aI24
aa(lp4349
S'AAAGAC'
p4350
aI1048
aI75
aa(lp4351
S'TTCTAG'
p4352
aI805
aI78
aa(lp4353
S'TTTCCA'
p4354
aI1462
aI110
aa(lp4355
S'CCTGGC'
p4356
aI225
aI28
aa(lp4357
S'GTACGT'
p4358
aI510
aI45
aa(lp4359
S'GTTTGT'
p4360
aI1025
aI88
aa(lp4361
S'TTTCCT'
p4362
aI2004
aI112
aa(lp4363
S'GGGCAG'
p4364
aI269
aI15
aa(lp4365
S'GTCTGT'
p4366
aI414
aI41
aa(lp4367
S'GGGCAA'
p4368
aI365
aI38
aa(lp4369
S'GGGCAC'
p4370
aI199
aI14
aa(lp4371
S'GTACGG'
p4372
aI356
aI75
aa(lp4373
S'GTTTGA'
p4374
aI890
aI95
aa(lp4375
S'GTTTGG'
p4376
aI571
aI76
aa(lp4377
S'GTACGA'
p4378
aI402
aI54
aa(lp4379
S'CCGCTC'
p4380
aI215
aI11
aa(lp4381
S'GCATGT'
p4382
aI496
aI49
aa(lp4383
S'CCGCTA'
p4384
aI270
aI15
aa(lp4385
S'CCGCTG'
p4386
aI271
aI30
aa(lp4387
S'GCGCGG'
p4388
aI170
aI28
aa(lp4389
S'GGGGTC'
p4390
aI157
aI26
aa(lp4391
S'GCGCGC'
p4392
aI226
aI17
aa(lp4393
S'ATCAAC'
p4394
aI1026
aI158
aa(lp4395
S'GCGCGA'
p4396
aI188
aI47
aa(lp4397
S'GCATGG'
p4398
aI294
aI39
aa(lp4399
S'GCATGC'
p4400
aI429
aI75
aa(lp4401
S'CCGCTT'
p4402
aI377
aI25
aa(lp4403
S'GCATGA'
p4404
aI478
aI43
aa(lp4405
S'TTTCAG'
p4406
aI1302
aI131
aa(lp4407
S'GTCGAC'
p4408
aI155
aI36
aa(lp4409
S'GTCGAA'
p4410
aI334
aI26
aa(lp4411
S'GTCGAG'
p4412
aI167
aI12
aa(lp4413
S'CGTGGC'
p4414
aI202
aI31
aa(lp4415
S'GAGCTA'
p4416
aI406
aI40
aa(lp4417
S'TGCGCT'
p4418
aI389
aI24
aa(lp4419
S'GAGCTC'
p4420
aI255
aI23
aa(lp4421
S'ATTGAT'
p4422
aI1555
aI204
aa(lp4423
S'TGTCCT'
p4424
aI571
aI61
aa(lp4425
S'AAACGA'
p4426
aI1078
aI167
aa(lp4427
S'AAACGC'
p4428
aI676
aI75
aa(lp4429
S'CACGCG'
p4430
aI174
aI23
aa(lp4431
S'AAACGG'
p4432
aI637
aI51
aa(lp4433
S'ATTGAA'
p4434
aI1908
aI182
aa(lp4435
S'TGCGCG'
p4436
aI230
aI33
aa(lp4437
S'TGTCCA'
p4438
aI440
aI41
aa(lp4439
S'GAGCTT'
p4440
aI525
aI32
aa(lp4441
S'TGCGCC'
p4442
aI207
aI32
aa(lp4443
S'ATTGAG'
p4444
aI762
aI61
aa(lp4445
S'TGCGCA'
p4446
aI351
aI37
aa(lp4447
S'GTGAAG'
p4448
aI591
aI46
aa(lp4449
S'AAACGT'
p4450
aI937
aI126
aa(lp4451
S'TGGGTT'
p4452
aI476
aI59
aa(lp4453
S'ATTTCA'
p4454
aI1990
aI176
aa(lp4455
S'CGATCC'
p4456
aI194
aI26
aa(lp4457
S'ATCAGT'
p4458
aI723
aI78
aa(lp4459
S'ATCGGG'
p4460
aI202
aI29
aa(lp4461
S'CATAGT'
p4462
aI608
aI49
aa(lp4463
S'ATCGGC'
p4464
aI266
aI29
aa(lp4465
S'CCGTGT'
p4466
aI198
aI19
aa(lp4467
S'ATCGGA'
p4468
aI388
aI63
aa(lp4469
S'ATTTCT'
p4470
aI2278
aI210
aa(lp4471
S'TACGCC'
p4472
aI239
aI20
aa(lp4473
S'TGGGTC'
p4474
aI219
aI30
aa(lp4475
S'TTTCGG'
p4476
aI594
aI66
aa(lp4477
S'TGGGTA'
p4478
aI447
aI79
aa(lp4479
S'CATAGG'
p4480
aI370
aI28
aa(lp4481
S'ATCGGT'
p4482
aI385
aI52
aa(lp4483
S'ATCAGG'
p4484
aI433
aI64
aa(lp4485
S'ATCAGA'
p4486
aI698
aI94
aa(lp4487
S'CATAGA'
p4488
aI698
aI62
aa(lp4489
S'ACGGGT'
p4490
aI222
aI36
aa(lp4491
S'CCTGGT'
p4492
aI274
aI26
aa(lp4493
S'ATTCGG'
p4494
aI330
aI31
aa(lp4495
S'GATTCT'
p4496
aI690
aI79
aa(lp4497
S'CTTTTG'
p4498
aI1602
aI146
aa(lp4499
S'TACTAG'
p4500
aI720
aI72
aa(lp4501
S'TACTAA'
p4502
aI1234
aI126
aa(lp4503
S'CTTTTA'
p4504
aI2095
aI160
aa(lp4505
S'GATTCC'
p4506
aI629
aI120
aa(lp4507
S'GATTCA'
p4508
aI696
aI94
aa(lp4509
S'ACGGGA'
p4510
aI235
aI7
aa(lp4511
S'ACGGGC'
p4512
aI168
aI11
aa(lp4513
S'TACTAT'
p4514
aI1535
aI122
aa(lp4515
S'CTTTTT'
p4516
aI4871
aI419
aa(lp4517
S'ACCAAC'
p4518
aI515
aI54
aa(lp4519
S'TCACGA'
p4520
aI400
aI56
aa(lp4521
S'TCACGC'
p4522
aI252
aI21
aa(lp4523
S'TCACGG'
p4524
aI204
aI11
aa(lp4525
S'GCAGCC'
p4526
aI274
aI26
aa(lp4527
S'TCACGT'
p4528
aI536
aI99
aa(lp4529
S'TTCCAC'
p4530
aI683
aI62
aa(lp4531
S'TTCCAA'
p4532
aI1149
aI114
aa(lp4533
S'TTCCAG'
p4534
aI620
aI58
aa(lp4535
S'ACCCTT'
p4536
aI601
aI105
aa(lp4537
S'TGAAGT'
p4538
aI925
aI60
aa(lp4539
S'ATGCTT'
p4540
aI944
aI96
aa(lp4541
S'TTCCAT'
p4542
aI1268
aI130
aa(lp4543
S'ACCCTA'
p4544
aI402
aI42
aa(lp4545
S'TGAAGA'
p4546
aI1390
aI141
aa(lp4547
S'TGAAGG'
p4548
aI628
aI47
aa(lp4549
S'ACCCTG'
p4550
aI311
aI46
aa(lp4551
S'CTGACT'
p4552
aI361
aI43
aa(lp4553
S'CCCCTT'
p4554
aI488
aI84
aa(lp4555
S'AGTTAT'
p4556
aI1214
aI101
aa(lp4557
S'GCGTTA'
p4558
aI401
aI38
aa(lp4559
S'CTGACC'
p4560
aI211
aI25
aa(lp4561
S'CTGACA'
p4562
aI493
aI73
aa(lp4563
S'AGTTAA'
p4564
aI1032
aI71
aa(lp4565
S'CCCCTG'
p4566
aI168
aI37
aa(lp4567
S'AGTTAC'
p4568
aI644
aI27
aa(lp4569
S'CCCCTC'
p4570
aI297
aI52
aa(lp4571
S'AGTTAG'
p4572
aI612
aI50
aa(lp4573
S'CCCCTA'
p4574
aI235
aI45
aa(lp4575
S'ACACAG'
p4576
aI528
aI40
aa(lp4577
S'ACACAA'
p4578
aI1052
aI118
aa(lp4579
S'ACACAC'
p4580
aI811
aI77
aa(lp4581
S'AATGTT'
p4582
aI1459
aI140
aa(lp4583
S'CTGCAG'
p4584
aI469
aI58
aa(lp4585
S'CATGGG'
p4586
aI227
aI25
aa(lp4587
S'CATGGA'
p4588
aI455
aI56
aa(lp4589
S'CTGCAA'
p4590
aI754
aI72
aa(lp4591
S'AATGTC'
p4592
aI750
aI82
aa(lp4593
S'ACACAT'
p4594
aI1007
aI70
aa(lp4595
S'AATGTA'
p4596
aI1521
aI142
aa(lp4597
S'AATGTG'
p4598
aI893
aI53
aa(lp4599
S'CATGGT'
p4600
aI402
aI35
aa(lp4601
S'GCACAA'
p4602
aI663
aI62
aa(lp4603
S'GCACAG'
p4604
aI409
aI33
aa(lp4605
S'CGATTC'
p4606
aI366
aI54
aa(lp4607
S'ACATTT'
p4608
aI1752
aI135
aa(lp4609
S'ATGTTC'
p4610
aI749
aI51
aa(lp4611
S'CGAGAT'
p4612
aI394
aI52
aa(lp4613
S'GTTCGT'
p4614
aI470
aI72
aa(lp4615
S'ACATTG'
p4616
aI857
aI101
aa(lp4617
S'ACATTA'
p4618
aI1345
aI117
aa(lp4619
S'ACATTC'
p4620
aI803
aI74
aa(lp4621
S'GTTCGA'
p4622
aI444
aI56
aa(lp4623
S'ATGCTC'
p4624
aI460
aI39
aa(lp4625
S'GTTCGC'
p4626
aI241
aI28
aa(lp4627
S'CGAGAC'
p4628
aI247
aI38
aa(lp4629
S'GGAGCC'
p4630
aI196
aI6
aa(lp4631
S'CGAGAA'
p4632
aI682
aI99
aa(lp4633
S'AAGTCT'
p4634
aI585
aI69
aa(lp4635
S'CCACAA'
p4636
aI496
aI52
aa(lp4637
S'GGACAT'
p4638
aI424
aI68
aa(lp4639
S'CAGCGT'
p4640
aI268
aI11
aa(lp4641
S'GCTATA'
p4642
aI758
aI83
aa(lp4643
S'GCTATC'
p4644
aI361
aI27
aa(lp4645
S'AAGTCG'
p4646
aI287
aI14
aa(lp4647
S'CACTGG'
p4648
aI280
aI24
aa(lp4649
S'AAGTCA'
p4650
aI800
aI104
aa(lp4651
S'GCTATG'
p4652
aI434
aI28
aa(lp4653
S'AGTCAG'
p4654
aI375
aI45
aa(lp4655
S'GGACAG'
p4656
aI309
aI20
aa(lp4657
S'GGACAC'
p4658
aI256
aI42
aa(lp4659
S'GGACAA'
p4660
aI498
aI46
aa(lp4661
S'GCACCT'
p4662
aI353
aI23
aa(lp4663
S'AGGGTT'
p4664
aI505
aI64
aa(lp4665
S'GAGGCG'
p4666
aI228
aI24
aa(lp4667
S'TGTTGG'
p4668
aI729
aI114
aa(lp4669
S'GAGGCA'
p4670
aI375
aI45
aa(lp4671
S'TGTTGA'
p4672
aI1024
aI125
aa(lp4673
S'GAGGCC'
p4674
aI199
aI16
aa(lp4675
S'TGTTGC'
p4676
aI660
aI46
aa(lp4677
S'TCCAAG'
p4678
aI504
aI28
aa(lp4679
S'ACTCGA'
p4680
aI335
aI29
aa(lp4681
S'TAAAAT'
p4682
aI2975
aI191
aa(lp4683
S'ACTCGC'
p4684
aI217
aI9
aa(lp4685
S'GCGTTT'
p4686
aI655
aI69
aa(lp4687
S'AGCGCA'
p4688
aI340
aI17
aa(lp4689
S'GAGGCT'
p4690
aI276
aI15
aa(lp4691
S'AGCGCC'
p4692
aI283
aI34
aa(lp4693
S'AGGGTG'
p4694
aI322
aI34
aa(lp4695
S'AGGGTA'
p4696
aI491
aI57
aa(lp4697
S'AGCGCG'
p4698
aI195
aI26
aa(lp4699
S'AGGGTC'
p4700
aI285
aI53
aa(lp4701
S'TAAAAG'
p4702
aI2140
aI185
aa(lp4703
S'ACTCGT'
p4704
aI326
aI37
aa(lp4705
S'TAAAAC'
p4706
aI1558
aI105
aa(lp4707
S'TAAAAA'
p4708
aI5001
aI371
aa(lp4709
S'ACGTTC'
p4710
aI425
aI19
aa(lp4711
S'TAGGGA'
p4712
aI350
aI26
aa(lp4713
S'CTACTA'
p4714
aI828
aI74
aa(lp4715
S'AGCTGA'
p4716
aI599
aI61
aa(lp4717
S'ACGTTG'
p4718
aI410
aI29
aa(lp4719
S'AGCTGG'
p4720
aI306
aI24
aa(lp4721
S'TAGGGG'
p4722
aI251
aI42
aa(lp4723
S'AGTGCG'
p4724
aI274
aI16
aa(lp4725
S'AGTGCA'
p4726
aI579
aI39
aa(lp4727
S'AGAGTT'
p4728
aI773
aI74
aa(lp4729
S'AGTGCC'
p4730
aI291
aI22
aa(lp4731
S'AAAACC'
p4732
aI1125
aI98
aa(lp4733
S'TAGGGT'
p4734
aI370
aI37
aa(lp4735
S'AGCTGT'
p4736
aI534
aI46
aa(lp4737
S'ACGTTT'
p4738
aI928
aI124
aa(lp4739
S'AGTGCT'
p4740
aI533
aI35
aa(lp4741
S'CGTTAC'
p4742
aI436
aI36
aa(lp4743
S'AGAGTA'
p4744
aI805
aI50
aa(lp4745
S'AGAGTG'
p4746
aI456
aI29
aa(lp4747
S'TAACCC'
p4748
aI366
aI39
aa(lp4749
S'GTTAAA'
p4750
aI1238
aI113
aa(lp4751
S'CTAATA'
p4752
aI1240
aI121
aa(lp4753
S'GTTAAC'
p4754
aI576
aI49
aa(lp4755
S'CCTGGA'
p4756
aI299
aI46
aa(lp4757
S'CCTGGG'
p4758
aI203
aI39
aa(lp4759
S'GTTAAG'
p4760
aI593
aI41
aa(lp4761
S'TTCGTC'
p4762
aI415
aI30
aa(lp4763
S'GCACCC'
p4764
aI233
aI42
aa(lp4765
S'GTCTGG'
p4766
aI211
aI20
aa(lp4767
S'GTCTGC'
p4768
aI269
aI19
aa(lp4769
S'GTTAAT'
p4770
aI1077
aI87
aa(lp4771
S'GTCTGA'
p4772
aI354
aI42
aa(lp4773
S'GGAAGG'
p4774
aI591
aI28
aa(lp4775
S'CCACAT'
p4776
aI536
aI60
aa(lp4777
S'GGAAGC'
p4778
aI590
aI70
aa(lp4779
S'GCACCG'
p4780
aI215
aI15
aa(lp4781
S'GGAAGA'
p4782
aI1041
aI82
aa(lp4783
S'TGTATT'
p4784
aI1742
aI168
aa(lp4785
S'CAATGA'
p4786
aI1001
aI117
aa(lp4787
S'GCGTTC'
p4788
aI312
aI25
aa(lp4789
S'CAATGC'
p4790
aI595
aI50
aa(lp4791
S'GCGTTG'
p4792
aI323
aI21
aa(lp4793
S'CAATGG'
p4794
aI593
aI67
aa(lp4795
S'CCACAG'
p4796
aI344
aI57
aa(lp4797
S'GGAAGT'
p4798
aI642
aI61
aa(lp4799
S'CCACAC'
p4800
aI477
aI54
aa(lp4801
S'ATGCTA'
p4802
aI814
aI61
aa(lp4803
S'ATTTGT'
p4804
aI1653
aI149
aa(lp4805
S'TCCTCG'
p4806
aI470
aI77
aa(lp4807
S'TGTATG'
p4808
aI1118
aI100
aa(lp4809
S'TCCTCA'
p4810
aI609
aI70
aa(lp4811
S'TGTATA'
p4812
aI2190
aI257
aa(lp4813
S'TCCTCC'
p4814
aI401
aI22
aa(lp4815
S'TGTATC'
p4816
aI757
aI86
aa(lp4817
S'GTGAAT'
p4818
aI764
aI56
aa(lp4819
S'TAACCG'
p4820
aI328
aI29
aa(lp4821
S'TCATAG'
p4822
aI572
aI35
aa(lp4823
S'TTCGTG'
p4824
aI553
aI74
aa(lp4825
S'TCATAA'
p4826
aI1332
aI126
aa(lp4827
S'TTCGTA'
p4828
aI767
aI88
aa(lp4829
S'CGTTAA'
p4830
aI671
aI65
aa(lp4831
S'TAACCA'
p4832
aI662
aI52
aa(lp4833
S'ACCGCT'
p4834
aI288
aI21
aa(lp4835
S'TGCATG'
p4836
aI578
aI69
aa(lp4837
S'GCTTGT'
p4838
aI599
aI46
aa(lp4839
S'TTCGTT'
p4840
aI1154
aI124
aa(lp4841
S'TCATAT'
p4842
aI1695
aI195
aa(lp4843
S'TAACCT'
p4844
aI633
aI48
aa(lp4845
S'CGTTAT'
p4846
aI755
aI52
aa(lp4847
S'GTGAAA'
p4848
aI1368
aI145
aa(lp4849
S'GTGAAC'
p4850
aI405
aI48
aa(lp4851
S'AGCAGC'
p4852
aI499
aI29
aa(lp4853
S'AACCCG'
p4854
aI225
aI24
aa(lp4855
S'ACCGCG'
p4856
aI144
aI15
aa(lp4857
S'ACCGCA'
p4858
aI318
aI28
aa(lp4859
S'AACGAG'
p4860
aI477
aI60
aa(lp4861
S'ACCGCC'
p4862
aI215
aI19
aa(lp4863
S'AGTTCC'
p4864
aI490
aI24
aa(lp4865
S'CCGCCT'
p4866
aI208
aI13
aa(lp4867
S'AGGCTT'
p4868
aI512
aI41
aa(lp4869
S'CCTTCT'
p4870
aI882
aI66
aa(lp4871
S'GTTGCA'
p4872
aI541
aI45
aa(lp4873
S'TGTCGC'
p4874
aI277
aI37
aa(lp4875
S'GTTGCC'
p4876
aI371
aI25
aa(lp4877
S'GTGCCG'
p4878
aI205
aI27
aa(lp4879
S'GTGCCA'
p4880
aI344
aI29
aa(lp4881
S'GTTGCG'
p4882
aI267
aI22
aa(lp4883
S'GTGCCC'
p4884
aI178
aI11
aa(lp4885
S'CCTTCA'
p4886
aI663
aI48
aa(lp4887
S'AGGCTA'
p4888
aI439
aI57
aa(lp4889
S'CCTTCC'
p4890
aI565
aI23
aa(lp4891
S'AGGCTC'
p4892
aI250
aI8
aa(lp4893
S'CCGCCC'
p4894
aI225
aI27
aa(lp4895
S'AATTGG'
p4896
aI887
aI100
aa(lp4897
S'CCGCCA'
p4898
aI248
aI24
aa(lp4899
S'AGGCTG'
p4900
aI278
aI23
aa(lp4901
S'GTGCCT'
p4902
aI331
aI45
aa(lp4903
S'GTTGCT'
p4904
aI652
aI31
aa(lp4905
S'AGCCCC'
p4906
aI154
aI21
aa(lp4907
S'GGATAT'
p4908
aI892
aI111
aa(lp4909
S'TCGGGT'
p4910
aI233
aI39
aa(lp4911
S'AAACCT'
p4912
aI834
aI61
aa(lp4913
S'GCAGTT'
p4914
aI625
aI43
aa(lp4915
S'GAAGCT'
p4916
aI705
aI84
aa(lp4917
S'GGATAA'
p4918
aI755
aI69
aa(lp4919
S'TCGGGA'
p4920
aI214
aI25
aa(lp4921
S'TCGGGG'
p4922
aI139
aI16
aa(lp4923
S'GGATAG'
p4924
aI399
aI40
aa(lp4925
S'GAAGCG'
p4926
aI428
aI27
aa(lp4927
S'GCAGTG'
p4928
aI371
aI24
aa(lp4929
S'GAAGCC'
p4930
aI420
aI34
aa(lp4931
S'GCAGTA'
p4932
aI655
aI55
aa(lp4933
S'GAAGCA'
p4934
aI855
aI95
aa(lp4935
S'GCAGTC'
p4936
aI284
aI31
aa(lp4937
S'CGCCCG'
p4938
aI136
aI18
aa(lp4939
S'GAGAGA'
p4940
aI765
aI40
aa(lp4941
S'CTCGCT'
p4942
aI244
aI15
aa(lp4943
S'CGCCCA'
p4944
aI222
aI18
aa(lp4945
S'CTACAA'
p4946
aI796
aI51
aa(lp4947
S'CTATAG'
p4948
aI546
aI20
aa(lp4949
S'CTATAC'
p4950
aI687
aI79
aa(lp4951
S'GCATTA'
p4952
aI800
aI67
aa(lp4953
S'CTCGCA'
p4954
aI258
aI27
aa(lp4955
S'CGCCCT'
p4956
aI184
aI17
aa(lp4957
S'GAGAGT'
p4958
aI488
aI58
aa(lp4959
S'GTCTCG'
p4960
aI210
aI28
aa(lp4961
S'CTATAT'
p4962
aI1736
aI179
aa(lp4963
S'AGTTTC'
p4964
aI1052
aI90
aa(lp4965
S'GCCGGG'
p4966
aI148
aI25
aa(lp4967
S'AGCATC'
p4968
aI573
aI68
aa(lp4969
S'TACCCG'
p4970
aI452
aI202
aa(lp4971
S'GCCGGC'
p4972
aI124
aI3
aa(lp4973
S'CATGTT'
p4974
aI767
aI52
aa(lp4975
S'GCCGGA'
p4976
aI210
aI7
aa(lp4977
S'AGAAAC'
p4978
aI1379
aI132
aa(lp4979
S'ACGTAG'
p4980
aI391
aI26
aa(lp4981
S'GCCACT'
p4982
aI344
aI32
aa(lp4983
S'CATGTA'
p4984
aI768
aI84
aa(lp4985
S'CATGTC'
p4986
aI349
aI29
aa(lp4987
S'GCCGGT'
p4988
aI166
aI15
aa(lp4989
S'CATGTG'
p4990
aI513
aI63
aa(lp4991
S'ATTAAC'
p4992
aI1104
aI103
aa(lp4993
S'TACCCC'
p4994
aI267
aI37
aa(lp4995
S'GATTGG'
p4996
aI495
aI81
aa(lp4997
S'GTACTC'
p4998
aI397
aI39
aa(lp4999
S'TCACTT'
p5000
aI1203
aI127
aa(lp5001
S'GGCCTC'
p5002
aI181
aI15
aa(lp5003
S'GGCCTA'
p5004
aI209
aI14
aa(lp5005
S'AATCGG'
p5006
aI404
aI70
aa(lp5007
S'AATCGC'
p5008
aI353
aI32
aa(lp5009
S'AATCGA'
p5010
aI662
aI67
aa(lp5011
S'GTTCAG'
p5012
aI490
aI62
aa(lp5013
S'GGCCTT'
p5014
aI368
aI20
aa(lp5015
S'TCACTA'
p5016
aI755
aI57
aa(lp5017
S'TCACTC'
p5018
aI504
aI43
aa(lp5019
S'AATCGT'
p5020
aI604
aI58
aa(lp5021
S'TCGAGG'
p5022
aI437
aI71
aa(lp5023
S'AGCCGA'
p5024
aI221
aI16
aa(lp5025
S'GAGCGT'
p5026
aI250
aI17
aa(lp5027
S'AGCCGC'
p5028
aI338
aI73
aa(lp5029
S'TAATTG'
p5030
aI1445
aI136
aa(lp5031
S'TAATTA'
p5032
aI2504
aI220
aa(lp5033
S'AGCCGG'
p5034
aI172
aI9
aa(lp5035
S'GTTTTT'
p5036
aI2818
aI233
aa(lp5037
S'TGGTGA'
p5038
aI590
aI40
aa(lp5039
S'TCTCAT'
p5040
aI1066
aI172
aa(lp5041
S'TGGTGC'
p5042
aI380
aI39
aa(lp5043
S'GGGCTA'
p5044
aI226
aI13
aa(lp5045
S'GGGCTG'
p5046
aI170
aI23
aa(lp5047
S'TGGTGG'
p5048
aI423
aI54
aa(lp5049
S'GATGGG'
p5050
aI283
aI36
aa(lp5051
S'TAATTT'
p5052
aI2843
aI190
aa(lp5053
S'CAGCTG'
p5054
aI397
aI47
aa(lp5055
S'GTTTTA'
p5056
aI1621
aI116
aa(lp5057
S'GGGCTC'
p5058
aI193
aI22
aa(lp5059
S'GAGCGA'
p5060
aI272
aI25
aa(lp5061
S'AGCCGT'
p5062
aI285
aI36
aa(lp5063
S'AAAAAG'
p5064
aI4663
aI305
aa(lp5065
S'TGACAG'
p5066
aI558
aI64
aa(lp5067
S'CCAAGG'
p5068
aI337
aI21
aa(lp5069
S'ACGTAT'
p5070
aI895
aI89
aa(lp5071
S'TCTCAG'
p5072
aI453
aI28
aa(lp5073
S'TCTCAA'
p5074
aI975
aI72
aa(lp5075
S'TGGTGT'
p5076
aI587
aI57
aa(lp5077
S'CCAAGA'
p5078
aI715
aI80
aa(lp5079
S'AGAACT'
p5080
aI885
aI79
aa(lp5081
S'CCTTCG'
p5082
aI364
aI33
aa(lp5083
S'TACCAT'
p5084
aI818
aI68
aa(lp5085
S'GATTTC'
p5086
aI897
aI90
aa(lp5087
S'GTATCC'
p5088
aI355
aI40
aa(lp5089
S'CCTATT'
p5090
aI828
aI74
aa(lp5091
S'CACTGT'
p5092
aI537
aI41
aa(lp5093
S'ACCCGA'
p5094
aI223
aI44
aa(lp5095
S'ATGTCT'
p5096
aI618
aI62
aa(lp5097
S'ACCCGC'
p5098
aI225
aI55
aa(lp5099
S'AGATAA'
p5100
aI1642
aI178
aa(lp5101
S'TACCAC'
p5102
aI633
aI76
aa(lp5103
S'AGAACG'
p5104
aI545
aI43
aa(lp5105
S'TACCAA'
p5106
aI1003
aI123
aa(lp5107
S'AGAACA'
p5108
aI1168
aI78
aa(lp5109
S'TACCAG'
p5110
aI418
aI29
aa(lp5111
S'AGAACC'
p5112
aI582
aI65
aa(lp5113
S'ATGTCA'
p5114
aI812
aI98
aa(lp5115
S'ACCCGT'
p5116
aI247
aI32
aa(lp5117
S'AGATAT'
p5118
aI1538
aI152
aa(lp5119
S'ATCACG'
p5120
aI465
aI74
aa(lp5121
S'CCTATA'
p5122
aI681
aI58
aa(lp5123
S'CACTGC'
p5124
aI408
aI27
aa(lp5125
S'ATGTCG'
p5126
aI383
aI53
aa(lp5127
S'CACTGA'
p5128
aI481
aI39
aa(lp5129
S'TAGGTT'
p5130
aI601
aI44
aa(lp5131
S'GTTTAC'
p5132
aI818
aI94
aa(lp5133
S'AATTAT'
p5134
aI2735
aI200
aa(lp5135
S'CTGTTG'
p5136
aI704
aI66
aa(lp5137
S'GTAACC'
p5138
aI426
aI47
aa(lp5139
S'TGGATC'
p5140
aI309
aI37
aa(lp5141
S'CGGGTT'
p5142
aI209
aI29
aa(lp5143
S'CTGTTA'
p5144
aI723
aI51
aa(lp5145
S'AATTAC'
p5146
aI1308
aI125
aa(lp5147
S'AATTAA'
p5148
aI2537
aI203
aa(lp5149
S'TAGGTA'
p5150
aI692
aI64
aa(lp5151
S'TAGGTC'
p5152
aI254
aI17
aa(lp5153
S'CGGGTC'
p5154
aI101
aI12
aa(lp5155
S'CTGTTT'
p5156
aI1257
aI103
aa(lp5157
S'CGGGTA'
p5158
aI390
aI175
aa(lp5159
S'CGGGTG'
p5160
aI194
aI40
aa(lp5161
S'GGGTAC'
p5162
aI232
aI32
aa(lp5163
S'CCAAAC'
p5164
aI579
aI75
aa(lp5165
S'ATTGTT'
p5166
aI2038
aI260
aa(lp5167
S'CACACT'
p5168
aI522
aI53
aa(lp5169
S'CATTAC'
p5170
aI837
aI66
aa(lp5171
S'AGCAAA'
p5172
aI1475
aI123
aa(lp5173
S'ATATAT'
p5174
aI8255
aI737
aa(lp5175
S'AGCAAC'
p5176
aI611
aI40
aa(lp5177
S'TTAGGC'
p5178
aI335
aI35
aa(lp5179
S'AAAGCT'
p5180
aI1104
aI79
aa(lp5181
S'TTAGGA'
p5182
aI647
aI58
aa(lp5183
S'AAAGCA'
p5184
aI1588
aI103
aa(lp5185
S'ATATAG'
p5186
aI1651
aI161
aa(lp5187
S'TTAGGT'
p5188
aI694
aI75
aa(lp5189
S'ATATAA'
p5190
aI4290
aI476
aa(lp5191
S'AGCAAT'
p5192
aI915
aI57
aa(lp5193
S'AAAGCG'
p5194
aI640
aI42
aa(lp5195
S'ATAGCA'
p5196
aI942
aI75
aa(lp5197
S'TACTTA'
p5198
aI1189
aI77
aa(lp5199
S'TACTTG'
p5200
aI862
aI76
aa(lp5201
S'ATAGCG'
p5202
aI440
aI36
aa(lp5203
S'TCTCAC'
p5204
aI545
aI25
aa(lp5205
S'CAGCGC'
p5206
aI225
aI12
aa(lp5207
S'CACAAG'
p5208
aI530
aI30
aa(lp5209
S'ATAGCT'
p5210
aI676
aI59
aa(lp5211
S'TACTTT'
p5212
aI2023
aI138
aa(lp5213
S'CATGCG'
p5214
aI304
aI47
aa(lp5215
S'GTTTTC'
p5216
aI1519
aI100
aa(lp5217
S'CGAGTT'
p5218
aI298
aI30
aa(lp5219
S'TCCAAT'
p5220
aI770
aI81
aa(lp5221
S'CGTACT'
p5222
aI413
aI45
aa(lp5223
S'CAGCGG'
p5224
aI284
aI30
aa(lp5225
S'TATGCT'
p5226
aI826
aI55
aa(lp5227
S'CTTAAG'
p5228
aI553
aI57
aa(lp5229
S'ACATAA'
p5230
aI1608
aI133
aa(lp5231
S'CTTAAA'
p5232
aI1336
aI113
aa(lp5233
S'AGGGGT'
p5234
aI267
aI38
aa(lp5235
S'CTTAAC'
p5236
aI645
aI55
aa(lp5237
S'CGTACA'
p5238
aI501
aI53
aa(lp5239
S'CGAGTG'
p5240
aI216
aI24
aa(lp5241
S'CGAGTA'
p5242
aI305
aI15
aa(lp5243
S'TCCAAA'
p5244
aI974
aI87
aa(lp5245
S'AGGGGA'
p5246
aI424
aI67
aa(lp5247
S'CTTAAT'
p5248
aI1056
aI61
aa(lp5249
S'TATGCG'
p5250
aI474
aI29
aa(lp5251
S'TATGCA'
p5252
aI980
aI142
aa(lp5253
S'ACATAT'
p5254
aI2220
aI210
aa(lp5255
S'CGTTTG'
p5256
aI591
aI86
aa(lp5257
S'CGACTT'
p5258
aI321
aI21
aa(lp5259
S'TGAATT'
p5260
aI1451
aI140
aa(lp5261
S'TTGTAA'
p5262
aI1441
aI127
aa(lp5263
S'TTGTAC'
p5264
aI814
aI42
aa(lp5265
S'TTGTAG'
p5266
aI777
aI42
aa(lp5267
S'TGAATC'
p5268
aI736
aI100
aa(lp5269
S'CGACTA'
p5270
aI313
aI36
aa(lp5271
S'TGAATA'
p5272
aI1624
aI138
aa(lp5273
S'GGATAC'
p5274
aI371
aI30
aa(lp5275
S'TGAATG'
p5276
aI916
aI85
aa(lp5277
S'CACACA'
p5278
aI924
aI77
aa(lp5279
S'CGACTG'
p5280
aI245
aI35
aa(lp5281
S'TTGTAT'
p5282
aI1915
aI216
aa(lp5283
S'ATCGTG'
p5284
aI343
aI26
aa(lp5285
S'GCTTCG'
p5286
aI355
aI33
aa(lp5287
S'GCTTCA'
p5288
aI637
aI71
aa(lp5289
S'ATCGTA'
p5290
aI679
aI82
aa(lp5291
S'TGGGAG'
p5292
aI315
aI45
aa(lp5293
S'GAGGGT'
p5294
aI313
aI34
aa(lp5295
S'TGGGAA'
p5296
aI593
aI35
aa(lp5297
S'TGGGAC'
p5298
aI243
aI43
aa(lp5299
S'GCTTCT'
p5300
aI816
aI55
aa(lp5301
S'ATCGTT'
p5302
aI758
aI96
aa(lp5303
S'ACAACG'
p5304
aI494
aI43
aa(lp5305
S'TGGGAT'
p5306
aI399
aI53
aa(lp5307
S'CTAGCC'
p5308
aI229
aI10
aa(lp5309
S'CTAGCA'
p5310
aI435
aI28
aa(lp5311
S'CTAGCG'
p5312
aI218
aI15
aa(lp5313
S'CGGTAG'
p5314
aI286
aI21
aa(lp5315
S'ACTTAG'
p5316
aI505
aI35
aa(lp5317
S'ACTTAA'
p5318
aI1084
aI87
aa(lp5319
S'CGGTAC'
p5320
aI232
aI22
aa(lp5321
S'TACACT'
p5322
aI716
aI46
aa(lp5323
S'CGGTAA'
p5324
aI438
aI50
aa(lp5325
S'GACCAG'
p5326
aI253
aI27
aa(lp5327
S'GACCAC'
p5328
aI221
aI20
aa(lp5329
S'TTGCCC'
p5330
aI378
aI40
aa(lp5331
S'GACCAA'
p5332
aI477
aI68
aa(lp5333
S'TTCGAG'
p5334
aI516
aI71
aa(lp5335
S'ACTTAT'
p5336
aI1161
aI89
aa(lp5337
S'CGGTAT'
p5338
aI397
aI33
aa(lp5339
S'TACACA'
p5340
aI1039
aI82
aa(lp5341
S'TACACG'
p5342
aI391
aI46
aa(lp5343
S'GCGAGA'
p5344
aI292
aI39
aa(lp5345
S'GAGAGC'
p5346
aI323
aI11
aa(lp5347
S'GCGAGC'
p5348
aI168
aI17
aa(lp5349
S'GCTGAG'
p5350
aI305
aI36
aa(lp5351
S'GCGAGG'
p5352
aI204
aI23
aa(lp5353
S'GAACTT'
p5354
aI880
aI88
aa(lp5355
S'CAGCCA'
p5356
aI400
aI57
aa(lp5357
S'CAGCCC'
p5358
aI218
aI28
aa(lp5359
S'TCCGGG'
p5360
aI213
aI43
aa(lp5361
S'GCGAGT'
p5362
aI180
aI11
aa(lp5363
S'CAGCCT'
p5364
aI311
aI29
aa(lp5365
S'GAACTC'
p5366
aI438
aI50
aa(lp5367
S'GAACTA'
p5368
aI717
aI53
aa(lp5369
S'GGACTT'
p5370
aI371
aI38
aa(lp5371
S'CACCTA'
p5372
aI434
aI48
aa(lp5373
S'AACTAT'
p5374
aI1350
aI125
aa(lp5375
S'CACCTC'
p5376
aI396
aI35
aa(lp5377
S'CACCTG'
p5378
aI352
aI52
aa(lp5379
S'TGATCC'
p5380
aI344
aI41
aa(lp5381
S'AACACT'
p5382
aI780
aI52
aa(lp5383
S'TGATCA'
p5384
aI677
aI77
aa(lp5385
S'TGATCG'
p5386
aI328
aI26
aa(lp5387
S'TAGATA'
p5388
aI1208
aI135
aa(lp5389
S'AACTAG'
p5390
aI637
aI50
aa(lp5391
S'GGACTG'
p5392
aI201
aI15
aa(lp5393
S'CACCTT'
p5394
aI695
aI65
aa(lp5395
S'GGACTA'
p5396
aI284
aI17
aa(lp5397
S'AACTAA'
p5398
aI1349
aI97
aa(lp5399
S'AACACG'
p5400
aI383
aI54
aa(lp5401
S'AACACA'
p5402
aI990
aI98
aa(lp5403
S'CGTCTC'
p5404
aI242
aI17
aa(lp5405
S'AACACC'
p5406
aI564
aI68
aa(lp5407
S'TGATCT'
p5408
aI764
aI115
aa(lp5409
S'ATATCG'
p5410
aI694
aI77
aa(lp5411
S'ACGCAC'
p5412
aI320
aI25
aa(lp5413
S'CAACAG'
p5414
aI672
aI80
aa(lp5415
S'GACAGT'
p5416
aI462
aI52
aa(lp5417
S'CAACAA'
p5418
aI1532
aI192
aa(lp5419
S'CCAGCC'
p5420
aI194
aI20
aa(lp5421
S'CAACAC'
p5422
aI607
aI78
aa(lp5423
S'GGCCGG'
p5424
aI166
aI14
aa(lp5425
S'ACGCAA'
p5426
aI609
aI74
aa(lp5427
S'GACAGG'
p5428
aI290
aI27
aa(lp5429
S'CAACAT'
p5430
aI885
aI98
aa(lp5431
S'GACAGC'
p5432
aI340
aI21
aa(lp5433
S'GACAGA'
p5434
aI529
aI48
aa(lp5435
S'GTATTA'
p5436
aI1218
aI100
aa(lp5437
S'GTATTC'
p5438
aI820
aI70
aa(lp5439
S'GTAAGT'
p5440
aI685
aI45
aa(lp5441
S'CCAGCG'
p5442
aI177
aI10
aa(lp5443
S'AGAGGT'
p5444
aI522
aI62
aa(lp5445
S'GGTGGC'
p5446
aI248
aI47
aa(lp5447
S'TCCCCT'
p5448
aI428
aI65
aa(lp5449
S'GGTGGA'
p5450
aI364
aI40
aa(lp5451
S'CGTCAT'
p5452
aI440
aI59
aa(lp5453
S'GGTGGG'
p5454
aI239
aI32
aa(lp5455
S'AGAGGC'
p5456
aI409
aI45
aa(lp5457
S'GTAAGA'
p5458
aI760
aI48
aa(lp5459
S'AGAGGA'
p5460
aI787
aI38
aa(lp5461
S'GTAAGC'
p5462
aI466
aI29
aa(lp5463
S'GTATTT'
p5464
aI1911
aI179
aa(lp5465
S'GTAAGG'
p5466
aI457
aI30
aa(lp5467
S'TATCTA'
p5468
aI1274
aI150
aa(lp5469
S'CGTCAC'
p5470
aI318
aI51
aa(lp5471
S'TCCCCC'
p5472
aI250
aI15
aa(lp5473
S'GGTGGT'
p5474
aI424
aI78
aa(lp5475
S'TCCCCA'
p5476
aI293
aI17
aa(lp5477
S'GTCGCG'
p5478
aI152
aI35
aa(lp5479
S'GTCGCA'
p5480
aI280
aI50
aa(lp5481
S'GTCGCC'
p5482
aI188
aI17
aa(lp5483
S'CCGTCT'
p5484
aI265
aI15
aa(lp5485
S'TCGGTA'
p5486
aI390
aI48
aa(lp5487
S'CTCGCG'
p5488
aI162
aI26
aa(lp5489
S'TCGGTG'
p5490
aI245
aI30
aa(lp5491
S'GTCGCT'
p5492
aI254
aI40
aa(lp5493
S'GTAACT'
p5494
aI638
aI43
aa(lp5495
S'CCGTCG'
p5496
aI157
aI26
aa(lp5497
S'CCGTCA'
p5498
aI298
aI37
aa(lp5499
S'TCGGTT'
p5500
aI451
aI63
aa(lp5501
S'GGCTGT'
p5502
aI326
aI41
aa(lp5503
S'CGCGTG'
p5504
aI157
aI21
aa(lp5505
S'GCATTT'
p5506
aI1232
aI116
aa(lp5507
S'CGCGTC'
p5508
aI199
aI58
aa(lp5509
S'CGCGTA'
p5510
aI223
aI28
aa(lp5511
S'ATGCAG'
p5512
aI577
aI60
aa(lp5513
S'CCACTA'
p5514
aI572
aI61
aa(lp5515
S'ATGCAC'
p5516
aI572
aI46
aa(lp5517
S'CGCGTT'
p5518
aI350
aI76
aa(lp5519
S'GGCTGG'
p5520
aI185
aI20
aa(lp5521
S'GGCTGA'
p5522
aI283
aI36
aa(lp5523
S'GGCTGC'
p5524
aI280
aI25
aa(lp5525
S'ATGCAT'
p5526
aI1043
aI153
aa(lp5527
S'CCTACC'
p5528
aI319
aI39
aa(lp5529
S'TTGACC'
p5530
aI427
aI56
aa(lp5531
S'ATGACG'
p5532
aI490
aI69
aa(lp5533
S'GGAGTT'
p5534
aI494
aI64
aa(lp5535
S'ATGACA'
p5536
aI951
aI121
aa(lp5537
S'ATGACC'
p5538
aI418
aI59
aa(lp5539
S'CGGGCC'
p5540
aI137
aI13
aa(lp5541
S'GGGCCT'
p5542
aI154
aI11
aa(lp5543
S'ATGACT'
p5544
aI741
aI126
aa(lp5545
S'GGAGTA'
p5546
aI375
aI26
aa(lp5547
S'CTACGC'
p5548
aI240
aI23
aa(lp5549
S'GGAGTC'
p5550
aI185
aI40
aa(lp5551
S'GGAGTG'
p5552
aI322
aI31
aa(lp5553
S'GGGCCG'
p5554
aI143
aI21
aa(lp5555
S'GGGCCC'
p5556
aI207
aI21
aa(lp5557
S'GGGCCA'
p5558
aI187
aI14
aa(lp5559
S'CTGATC'
p5560
aI378
aI46
aa(lp5561
S'ACGAGT'
p5562
aI278
aI32
aa(lp5563
S'TTCGCC'
p5564
aI358
aI33
aa(lp5565
S'GCGCAA'
p5566
aI411
aI39
aa(lp5567
S'GCGCAC'
p5568
aI214
aI19
aa(lp5569
S'AAAGTC'
p5570
aI790
aI87
aa(lp5571
S'GCGCAG'
p5572
aI255
aI18
aa(lp5573
S'ACGAGG'
p5574
aI307
aI33
aa(lp5575
S'ACGAGC'
p5576
aI244
aI27
aa(lp5577
S'GACCCG'
p5578
aI99
aI7
aa(lp5579
S'ACGAGA'
p5580
aI466
aI54
aa(lp5581
S'GGCAAC'
p5582
aI351
aI35
aa(lp5583
S'GCGCAT'
p5584
aI299
aI25
aa(lp5585
S'AGACGG'
p5586
aI246
aI19
aa(lp5587
S'GGGTTG'
p5588
aI275
aI28
aa(lp5589
S'GACTAC'
p5590
aI341
aI22
aa(lp5591
S'TGCGAT'
p5592
aI486
aI70
aa(lp5593
S'GGGTTC'
p5594
aI339
aI56
aa(lp5595
S'TTTGAT'
p5596
aI1812
aI185
aa(lp5597
S'TGAACT'
p5598
aI789
aI75
aa(lp5599
S'AACGGT'
p5600
aI483
aI42
aa(lp5601
S'TGCGAA'
p5602
aI458
aI33
aa(lp5603
S'TACAAG'
p5604
aI898
aI84
aa(lp5605
S'AGATCC'
p5606
aI355
aI39
aa(lp5607
S'TGCGAG'
p5608
aI263
aI31
aa(lp5609
S'AACGGC'
p5610
aI371
aI40
aa(lp5611
S'TTTGAG'
p5612
aI1019
aI82
aa(lp5613
S'ATTGCA'
p5614
aI1045
aI130
aa(lp5615
S'TTTGGC'
p5616
aI754
aI46
aa(lp5617
S'AACGGG'
p5618
aI246
aI11
aa(lp5619
S'TTTGAC'
p5620
aI828
aI84
aa(lp5621
S'TTTGAA'
p5622
aI2200
aI177
aa(lp5623
S'ATCATC'
p5624
aI1057
aI163
aa(lp5625
S'CCTGAC'
p5626
aI269
aI50
aa(lp5627
S'CTCGTA'
p5628
aI325
aI34
aa(lp5629
S'CTCGTC'
p5630
aI241
aI26
aa(lp5631
S'CCCTGG'
p5632
aI207
aI42
aa(lp5633
S'CCCTGA'
p5634
aI332
aI55
aa(lp5635
S'AAGCTT'
p5636
aI951
aI55
aa(lp5637
S'GATATT'
p5638
aI1680
aI174
aa(lp5639
S'GTGGGC'
p5640
aI170
aI12
aa(lp5641
S'CCCTGT'
p5642
aI338
aI41
aa(lp5643
S'TTGACG'
p5644
aI480
aI65
aa(lp5645
S'GATATA'
p5646
aI1570
aI170
aa(lp5647
S'AAGCTA'
p5648
aI791
aI70
aa(lp5649
S'GATATG'
p5650
aI896
aI113
aa(lp5651
S'TGACGA'
p5652
aI461
aI56
aa(lp5653
S'TGACGC'
p5654
aI339
aI44
aa(lp5655
S'TACTCT'
p5656
aI770
aI48
aa(lp5657
S'CATCGT'
p5658
aI425
aI38
aa(lp5659
S'GTAGTC'
p5660
aI356
aI21
aa(lp5661
S'CCAGTA'
p5662
aI444
aI35
aa(lp5663
S'CTACGG'
p5664
aI244
aI21
aa(lp5665
S'CCAGTC'
p5666
aI215
aI19
aa(lp5667
S'TACGAT'
p5668
aI618
aI80
aa(lp5669
S'CCAGTG'
p5670
aI235
aI13
aa(lp5671
S'TACTCG'
p5672
aI298
aI10
aa(lp5673
S'CATCGA'
p5674
aI485
aI96
aa(lp5675
S'CATCGC'
p5676
aI488
aI112
aa(lp5677
S'TACTCC'
p5678
aI396
aI25
aa(lp5679
S'TACTCA'
p5680
aI732
aI82
aa(lp5681
S'CATCGG'
p5682
aI264
aI31
aa(lp5683
S'CAGGGG'
p5684
aI173
aI41
aa(lp5685
S'CAGGGA'
p5686
aI308
aI46
aa(lp5687
S'CAGGGC'
p5688
aI214
aI34
aa(lp5689
S'AATCTG'
p5690
aI780
aI110
aa(lp5691
S'CGGACT'
p5692
aI174
aI17
aa(lp5693
S'GCCATT'
p5694
aI682
aI59
aa(lp5695
S'AATCTA'
p5696
aI1008
aI142
aa(lp5697
S'TGAACG'
p5698
aI501
aI59
aa(lp5699
S'TCACAC'
p5700
aI494
aI29
aa(lp5701
S'TCACAA'
p5702
aI885
aI126
aa(lp5703
S'TAAATT'
p5704
aI2337
aI201
aa(lp5705
S'GAGGAG'
p5706
aI484
aI43
aa(lp5707
S'GCCATA'
p5708
aI499
aI31
aa(lp5709
S'CGGACG'
p5710
aI135
aI8
aa(lp5711
S'AATCTT'
p5712
aI1301
aI102
aa(lp5713
S'CGGACA'
p5714
aI250
aI37
aa(lp5715
S'CGGACC'
p5716
aI137
aI13
aa(lp5717
S'GCCATG'
p5718
aI255
aI10
aa(lp5719
S'CTTACC'
p5720
aI477
aI41
aa(lp5721
S'CTCGGC'
p5722
aI179
aI18
aa(lp5723
S'TCACAT'
p5724
aI829
aI83
aa(lp5725
S'TGAACC'
p5726
aI436
aI43
aa(lp5727
S'CACGGA'
p5728
aI270
aI24
aa(lp5729
S'ATTAAA'
p5730
aI2660
aI197
aa(lp5731
S'TCCCCG'
p5732
aI199
aI17
aa(lp5733
S'ATTAAG'
p5734
aI1115
aI86
aa(lp5735
S'TTTTAC'
p5736
aI2060
aI139
aa(lp5737
S'GGCCTG'
p5738
aI221
aI18
aa(lp5739
S'ACTCCT'
p5740
aI426
aI44
aa(lp5741
S'ATTCGT'
p5742
aI719
aI62
aa(lp5743
S'GAACCG'
p5744
aI293
aI32
aa(lp5745
S'ATTAAT'
p5746
aI2594
aI193
aa(lp5747
S'AAGCAC'
p5748
aI704
aI45
aa(lp5749
S'TACCTG'
p5750
aI429
aI44
aa(lp5751
S'GGTATG'
p5752
aI498
aI85
aa(lp5753
S'CTGAAT'
p5754
aI706
aI75
aa(lp5755
S'GGTATC'
p5756
aI350
aI42
aa(lp5757
S'CGAGAG'
p5758
aI284
aI35
aa(lp5759
S'GGTATT'
p5760
aI858
aI100
aa(lp5761
S'CTGAAC'
p5762
aI530
aI60
aa(lp5763
S'TCGACC'
p5764
aI147
aI6
aa(lp5765
S'GGAACC'
p5766
aI322
aI27
aa(lp5767
S'CTGAAG'
p5768
aI618
aI47
aa(lp5769
S'GTAGTG'
p5770
aI489
aI27
aa(lp5771
S'CCCGGC'
p5772
aI193
aI22
aa(lp5773
S'CATTGA'
p5774
aI921
aI106
aa(lp5775
S'CTAGTT'
p5776
aI638
aI43
aa(lp5777
S'CATTGG'
p5778
aI493
aI53
aa(lp5779
S'TCCACC'
p5780
aI366
aI41
aa(lp5781
S'TCAACT'
p5782
aI958
aI113
aa(lp5783
S'ACCATC'
p5784
aI546
aI54
aa(lp5785
S'ACACCG'
p5786
aI284
aI41
aa(lp5787
S'CTGCCA'
p5788
aI425
aI34
aa(lp5789
S'GACACT'
p5790
aI453
aI63
aa(lp5791
S'ACACCC'
p5792
aI381
aI55
aa(lp5793
S'ACACCA'
p5794
aI546
aI48
aa(lp5795
S'CTGCCG'
p5796
aI215
aI21
aa(lp5797
S'CTAGTG'
p5798
aI357
aI34
aa(lp5799
S'TCAACC'
p5800
aI524
aI55
aa(lp5801
S'TCAACA'
p5802
aI1112
aI183
aa(lp5803
S'CTAGTC'
p5804
aI285
aI23
aa(lp5805
S'TCAACG'
p5806
aI433
aI66
aa(lp5807
S'CTAGTA'
p5808
aI745
aI90
aa(lp5809
S'CATTGT'
p5810
aI940
aI98
aa(lp5811
S'TATGAC'
p5812
aI683
aI83
aa(lp5813
S'GTAATG'
p5814
aI830
aI62
aa(lp5815
S'ACACCT'
p5816
aI502
aI43
aa(lp5817
S'CTGCCT'
p5818
aI358
aI13
aa(lp5819
S'CCTCGT'
p5820
aI280
aI26
aa(lp5821
S'TTGTGT'
p5822
aI951
aI100
aa(lp5823
S'AGACTG'
p5824
aI369
aI29
aa(lp5825
S'CGAGGT'
p5826
aI243
aI19
aa(lp5827
S'AGACTA'
p5828
aI493
aI40
aa(lp5829
S'CCTCGG'
p5830
aI144
aI17
aa(lp5831
S'CCTCGC'
p5832
aI171
aI21
aa(lp5833
S'CCTCGA'
p5834
aI433
aI70
aa(lp5835
S'CGAGGA'
p5836
aI465
aI81
aa(lp5837
S'AGACTT'
p5838
aI608
aI61
aa(lp5839
S'CGAGGG'
p5840
aI178
aI16
aa(lp5841
S'CACCGT'
p5842
aI365
aI43
aa(lp5843
S'ACTTTA'
p5844
aI1316
aI81
aa(lp5845
S'ACTTTG'
p5846
aI847
aI53
aa(lp5847
S'GACCTG'
p5848
aI243
aI26
aa(lp5849
S'GACCTA'
p5850
aI241
aI21
aa(lp5851
S'GACCTC'
p5852
aI288
aI46
aa(lp5853
S'CACCGG'
p5854
aI153
aI18
aa(lp5855
S'CTATTG'
p5856
aI918
aI130
aa(lp5857
S'CACCGA'
p5858
aI256
aI41
aa(lp5859
S'ACTTTT'
p5860
aI2663
aI233
aa(lp5861
S'GGACGA'
p5862
aI218
aI14
aa(lp5863
S'GGACGC'
p5864
aI155
aI8
aa(lp5865
S'GGACGG'
p5866
aI161
aI13
aa(lp5867
S'CTATTA'
p5868
aI1303
aI106
aa(lp5869
S'CACAGC'
p5870
aI395
aI61
aa(lp5871
S'CTTATC'
p5872
aI767
aI152
aa(lp5873
S'CACAGA'
p5874
aI570
aI54
aa(lp5875
S'CTTATA'
p5876
aI1268
aI145
aa(lp5877
S'CACAGG'
p5878
aI313
aI26
aa(lp5879
S'TTAACT'
p5880
aI1078
aI72
aa(lp5881
S'ACTCAT'
p5882
aI686
aI83
aa(lp5883
S'CGTATA'
p5884
aI1028
aI129
aa(lp5885
S'GACGTA'
p5886
aI373
aI29
aa(lp5887
S'CGTATC'
p5888
aI372
aI33
aa(lp5889
S'CTATTC'
p5890
aI851
aI58
aa(lp5891
S'TAAACT'
p5892
aI1211
aI88
aa(lp5893
S'GAGGAA'
p5894
aI945
aI73
aa(lp5895
S'AGCGAT'
p5896
aI461
aI49
aa(lp5897
S'TTAACA'
p5898
aI1279
aI117
aa(lp5899
S'ACTCAC'
p5900
aI396
aI51
aa(lp5901
S'TTAACC'
p5902
aI553
aI43
aa(lp5903
S'TATGAT'
p5904
aI1408
aI169
aa(lp5905
S'ACTCAG'
p5906
aI420
aI73
aa(lp5907
S'CTTATT'
p5908
aI1705
aI133
aa(lp5909
S'CACAGT'
p5910
aI512
aI40
aa(lp5911
S'AGCGAC'
p5912
aI321
aI35
aa(lp5913
S'TAAACA'
p5914
aI1619
aI190
aa(lp5915
S'AGCGAA'
p5916
aI537
aI43
aa(lp5917
S'GAGGAT'
p5918
aI574
aI82
aa(lp5919
S'GACGTT'
p5920
aI391
aI47
aa(lp5921
S'CGTATT'
p5922
aI793
aI88
aa(lp5923
S'TAAACG'
p5924
aI849
aI122
aa(lp5925
S'CTGTGG'
p5926
aI358
aI50
aa(lp5927
S'GTATGT'
p5928
aI1065
aI115
aa(lp5929
S'AGTTCA'
p5930
aI816
aI78
aa(lp5931
S'AGTTCG'
p5932
aI387
aI51
aa(lp5933
S'TAGCCC'
p5934
aI216
aI8
aa(lp5935
S'CTGTGA'
p5936
aI453
aI50
aa(lp5937
S'CGGGGT'
p5938
aI183
aI26
aa(lp5939
S'TCTAAG'
p5940
aI584
aI57
aa(lp5941
S'GCAAAG'
p5942
aI747
aI44
aa(lp5943
S'TAGGAA'
p5944
aI949
aI91
aa(lp5945
S'GCAAAA'
p5946
aI1769
aI161
aa(lp5947
S'TAGGAG'
p5948
aI351
aI43
aa(lp5949
S'GCAAAC'
p5950
aI636
aI52
aa(lp5951
S'CGGGGC'
p5952
aI132
aI6
aa(lp5953
S'CGGGGA'
p5954
aI163
aI22
aa(lp5955
S'CTGTGT'
p5956
aI490
aI40
aa(lp5957
S'GTATGA'
p5958
aI770
aI77
aa(lp5959
S'GTATGC'
p5960
aI511
aI48
aa(lp5961
S'AGTTCT'
p5962
aI874
aI86
aa(lp5963
S'GCAAAT'
p5964
aI1091
aI131
aa(lp5965
S'TAGGAT'
p5966
aI666
aI58
aa(lp5967
S'AAAAAT'
p5968
aI6053
aI441
aa(lp5969
S'GCATAT'
p5970
aI1030
aI85
aa(lp5971
S'TGCTTT'
p5972
aI1536
aI119
aa(lp5973
S'ACAGGA'
p5974
aI539
aI60
aa(lp5975
S'ACTAGG'
p5976
aI261
aI7
aa(lp5977
S'GTTACC'
p5978
aI542
aI88
aa(lp5979
S'GTTACA'
p5980
aI680
aI60
aa(lp5981
S'TAATTC'
p5982
aI1061
aI88
aa(lp5983
S'TATCGA'
p5984
aI588
aI69
aa(lp5985
S'TATCGC'
p5986
aI426
aI34
aa(lp5987
S'TATAGT'
p5988
aI1298
aI109
aa(lp5989
S'GTCTAA'
p5990
aI483
aI49
aa(lp5991
S'TGCTTA'
p5992
aI839
aI79
aa(lp5993
S'TTCAAG'
p5994
aI1140
aI66
aa(lp5995
S'TGCTTC'
p5996
aI849
aI85
aa(lp5997
S'TTCAAA'
p5998
aI2281
aI171
aa(lp5999
S'GTCTAG'
p6000
aI276
aI30
aa(lp6001
S'GATGGA'
p6002
aI554
aI93
aa(lp6003
S'TATAGC'
p6004
aI770
aI85
aa(lp6005
S'TATCGT'
p6006
aI776
aI91
aa(lp6007
S'TATAGA'
p6008
aI1481
aI159
aa(lp6009
S'AGTGGG'
p6010
aI279
aI18
aa(lp6011
S'TATAGG'
p6012
aI652
aI67
aa(lp6013
S'GTTACT'
p6014
aI800
aI54
aa(lp6015
S'GGAAAA'
p6016
aI2481
aI218
aa(lp6017
S'GCTCTA'
p6018
aI405
aI30
aa(lp6019
S'CCAAGT'
p6020
aI452
aI39
aa(lp6021
S'GCTCTG'
p6022
aI280
aI9
aa(lp6023
S'CCACGT'
p6024
aI261
aI24
aa(lp6025
S'CAATAT'
p6026
aI1678
aI139
aa(lp6027
S'AGGACC'
p6028
aI261
aI23
aa(lp6029
S'GAATGG'
p6030
aI549
aI41
aa(lp6031
S'GAATGA'
p6032
aI1050
aI116
aa(lp6033
S'ACTACT'
p6034
aI882
aI74
aa(lp6035
S'GAATGC'
p6036
aI517
aI51
aa(lp6037
S'GCATAA'
p6038
aI836
aI69
aa(lp6039
S'AACCTG'
p6040
aI445
aI33
aa(lp6041
S'CCACGC'
p6042
aI187
aI16
aa(lp6043
S'GGCGTA'
p6044
aI238
aI17
aa(lp6045
S'GTTCCG'
p6046
aI278
aI32
aa(lp6047
S'GGAAAT'
p6048
aI1166
aI95
aa(lp6049
S'CCACGG'
p6050
aI215
aI32
aa(lp6051
S'AACCTA'
p6052
aI575
aI44
aa(lp6053
S'GGCTTA'
p6054
aI379
aI34
aa(lp6055
S'ACTACC'
p6056
aI450
aI34
aa(lp6057
S'GGCTTC'
p6058
aI379
aI28
aa(lp6059
S'ACTACA'
p6060
aI811
aI75
aa(lp6061
S'ACTACG'
p6062
aI386
aI49
aa(lp6063
S'GGCTTG'
p6064
aI363
aI51
aa(lp6065
S'CGTTGA'
p6066
aI498
aI51
aa(lp6067
S'AAAAAA'
p6068
aI16743
aI1423
aa(lp6069
S'CGTTGC'
p6070
aI344
aI24
aa(lp6071
S'TAACAC'
p6072
aI679
aI71
aa(lp6073
S'TCCTAC'
p6074
aI435
aI36
aa(lp6075
S'AGTCAC'
p6076
aI470
aI70
aa(lp6077
S'TCCTAA'
p6078
aI659
aI61
aa(lp6079
S'AGTCAA'
p6080
aI732
aI71
aa(lp6081
S'TCATCG'
p6082
aI683
aI170
aa(lp6083
S'TGAGGG'
p6084
aI314
aI28
aa(lp6085
S'TCATCC'
p6086
aI535
aI41
aa(lp6087
S'GAGCGG'
p6088
aI207
aI16
aa(lp6089
S'TCATCA'
p6090
aI1234
aI197
aa(lp6091
S'AGTCAT'
p6092
aI757
aI129
aa(lp6093
S'TCCTAT'
p6094
aI821
aI92
aa(lp6095
S'TAACAT'
p6096
aI1192
aI121
aa(lp6097
S'CGTTGT'
p6098
aI426
aI32
aa(lp6099
S'GTTTTG'
p6100
aI1258
aI128
aa(lp6101
S'TACCCT'
p6102
aI526
aI80
aa(lp6103
S'CTTTCA'
p6104
aI1267
aI88
aa(lp6105
S'CTTTCG'
p6106
aI621
aI47
aa(lp6107
S'GCGGGT'
p6108
aI211
aI55
aa(lp6109
S'GAGCGC'
p6110
aI171
aI14
aa(lp6111
S'GTTGAT'
p6112
aI978
aI135
aa(lp6113
S'CGACCA'
p6114
aI166
aI13
aa(lp6115
S'CGACCC'
p6116
aI106
aI6
aa(lp6117
S'CGACCG'
p6118
aI125
aI16
aa(lp6119
S'CCTTAT'
p6120
aI891
aI121
aa(lp6121
S'GTTGAC'
p6122
aI436
aI53
aa(lp6123
S'GTTGAA'
p6124
aI1095
aI102
aa(lp6125
S'ACTGGG'
p6126
aI273
aI24
aa(lp6127
S'GTTGAG'
p6128
aI508
aI69
aa(lp6129
S'TTAGGG'
p6130
aI369
aI54
aa(lp6131
S'CCTTAC'
p6132
aI456
aI30
aa(lp6133
S'CCTTAA'
p6134
aI760
aI89
aa(lp6135
S'CCTTAG'
p6136
aI376
aI36
aa(lp6137
S'CGACCT'
p6138
aI203
aI34
aa(lp6139
S'AATAGA'
p6140
aI1652
aI131
aa(lp6141
S'CAACTA'
p6142
aI825
aI92
aa(lp6143
S'CAACTG'
p6144
aI603
aI52
aa(lp6145
S'TGTGGT'
p6146
aI575
aI62
aa(lp6147
S'AATATC'
p6148
aI1582
aI155
aa(lp6149
S'AAAGTT'
p6150
aI1768
aI112
aa(lp6151
S'GGGGTT'
p6152
aI314
aI43
aa(lp6153
S'GGATGT'
p6154
aI459
aI76
aa(lp6155
S'AATAGT'
p6156
aI1639
aI122
aa(lp6157
S'GGGCTT'
p6158
aI289
aI23
aa(lp6159
S'CAACTT'
p6160
aI877
aI49
aa(lp6161
S'GGGGTG'
p6162
aI195
aI29
aa(lp6163
S'GGATGA'
p6164
aI531
aI52
aa(lp6165
S'GGATGG'
p6166
aI347
aI49
aa(lp6167
S'GGGGTA'
p6168
aI249
aI30
aa(lp6169
S'TCTCCG'
p6170
aI341
aI43
aa(lp6171
S'GAGTCC'
p6172
aI206
aI35
aa(lp6173
S'GAGTCA'
p6174
aI367
aI92
aa(lp6175
S'TCTCCC'
p6176
aI423
aI38
aa(lp6177
S'AAACTA'
p6178
aI1526
aI129
aa(lp6179
S'TCTCCA'
p6180
aI569
aI66
aa(lp6181
S'AAACTC'
p6182
aI799
aI73
aa(lp6183
S'CTATGA'
p6184
aI582
aI53
aa(lp6185
S'AGTACG'
p6186
aI437
aI47
aa(lp6187
S'CTATGC'
p6188
aI396
aI36
aa(lp6189
S'AGTACC'
p6190
aI470
aI51
aa(lp6191
S'CTATGG'
p6192
aI351
aI29
aa(lp6193
S'AGTACA'
p6194
aI862
aI93
aa(lp6195
S'CCCTTA'
p6196
aI510
aI94
aa(lp6197
S'CCCTTC'
p6198
aI513
aI51
aa(lp6199
S'TCTCCT'
p6200
aI779
aI81
aa(lp6201
S'GAGTCT'
p6202
aI270
aI26
aa(lp6203
S'AGTACT'
p6204
aI814
aI73
aa(lp6205
S'CTATGT'
p6206
aI764
aI73
aa(lp6207
S'GCCGAA'
p6208
aI342
aI31
aa(lp6209
S'GTGGAG'
p6210
aI362
aI53
aa(lp6211
S'GCCGAC'
p6212
aI151
aI11
aa(lp6213
S'GTGGAC'
p6214
aI231
aI12
aa(lp6215
S'GCCGAG'
p6216
aI186
aI21
aa(lp6217
S'GTGGAA'
p6218
aI718
aI73
aa(lp6219
S'CGCCCC'
p6220
aI177
aI23
aa(lp6221
S'GTGGAT'
p6222
aI420
aI63
aa(lp6223
S'GCCATC'
p6224
aI358
aI35
aa(lp6225
S'GCCGAT'
p6226
aI268
aI37
aa(lp6227
S'AGATAG'
p6228
aI745
aI58
aa(lp6229
S'ACCCGG'
p6230
aI285
aI108
aa(lp6231
S'ACCGAG'
p6232
aI256
aI41
aa(lp6233
S'AAATCG'
p6234
aI717
aI63
aa(lp6235
S'GTAGTA'
p6236
aI894
aI61
aa(lp6237
S'CACGCA'
p6238
aI330
aI32
aa(lp6239
S'AAATCC'
p6240
aI850
aI82
aa(lp6241
S'ACCGAA'
p6242
aI484
aI70
aa(lp6243
S'AAATCA'
p6244
aI1782
aI178
aa(lp6245
S'AGAGGG'
p6246
aI411
aI35
aa(lp6247
S'AGATAC'
p6248
aI670
aI62
aa(lp6249
S'CACGCT'
p6250
aI278
aI13
aa(lp6251
S'AAATCT'
p6252
aI1389
aI151
aa(lp6253
S'ACCGAT'
p6254
aI372
aI54
aa(lp6255
S'GTAGTT'
p6256
aI912
aI91
aa(lp6257
S'ACCAGT'
p6258
aI465
aI46
aa(lp6259
S'ATAGTC'
p6260
aI561
aI58
aa(lp6261
S'GATGAT'
p6262
aI1042
aI162
aa(lp6263
S'GGAGCA'
p6264
aI373
aI39
aa(lp6265
S'TTTCCG'
p6266
aI807
aI84
aa(lp6267
S'AAAGTG'
p6268
aI1323
aI130
aa(lp6269
S'CCAAAT'
p6270
aI935
aI82
aa(lp6271
S'GGAGCG'
p6272
aI167
aI18
aa(lp6273
S'AAAACT'
p6274
aI1901
aI135
aa(lp6275
S'GATGAC'
p6276
aI663
aI119
aa(lp6277
S'TGTCCC'
p6278
aI309
aI42
aa(lp6279
S'GATGAA'
p6280
aI1213
aI166
aa(lp6281
S'GATGAG'
p6282
aI860
aI229
aa(lp6283
S'CCAAAA'
p6284
aI1582
aI181
aa(lp6285
S'ACTAAC'
p6286
aI629
aI69
aa(lp6287
S'AAAACA'
p6288
aI2681
aI244
aa(lp6289
S'AAAACG'
p6290
aI1170
aI96
aa(lp6291
S'GGAGCT'
p6292
aI252
aI21
aa(lp6293
S'CCAAAG'
p6294
aI602
aI25
aa(lp6295
S'TCGCGG'
p6296
aI174
aI31
aa(lp6297
S'CGGTCC'
p6298
aI134
aI14
aa(lp6299
S'TCGCGC'
p6300
aI224
aI44
aa(lp6301
S'TCGCGA'
p6302
aI249
aI48
aa(lp6303
S'GCCACA'
p6304
aI391
aI49
aa(lp6305
S'AGATCA'
p6306
aI777
aI125
aa(lp6307
S'GCCACC'
p6308
aI248
aI44
aa(lp6309
S'AGAAAT'
p6310
aI2298
aI219
aa(lp6311
S'TCCCGG'
p6312
aI148
aI11
aa(lp6313
S'CGACGG'
p6314
aI174
aI28
aa(lp6315
S'GCCACG'
p6316
aI221
aI35
aa(lp6317
S'AGATCG'
p6318
aI361
aI51
aa(lp6319
S'ACCAGC'
p6320
aI307
aI24
aa(lp6321
S'TCGCGT'
p6322
aI270
aI63
aa(lp6323
S'ACCTAG'
p6324
aI259
aI14
aa(lp6325
S'TCTTTT'
p6326
aI4261
aI379
aa(lp6327
S'AGAAAG'
p6328
aI1823
aI100
aa(lp6329
S'TCCCTT'
p6330
aI949
aI125
aa(lp6331
S'AGATCT'
p6332
aI682
aI104
aa(lp6333
S'TACCCA'
p6334
aI472
aI71
aa(lp6335
S'AGAAAA'
p6336
aI4808
aI392
aa(lp6337
S'GTGCAG'
p6338
aI354
aI18
aa(lp6339
S'ATGTAC'
p6340
aI937
aI98
aa(lp6341
S'ACTTCG'
p6342
aI419
aI21
aa(lp6343
S'ATGTAA'
p6344
aI1645
aI174
aa(lp6345
S'ATGTAG'
p6346
aI851
aI89
aa(lp6347
S'CAAGCC'
p6348
aI394
aI42
aa(lp6349
S'ACCAGG'
p6350
aI268
aI31
aa(lp6351
S'ACGTCA'
p6352
aI459
aI61
aa(lp6353
S'ACGAAG'
p6354
aI504
aI35
aa(lp6355
S'GACGAC'
p6356
aI217
aI25
aa(lp6357
S'CCTATC'
p6358
aI392
aI44
aa(lp6359
S'ATGTAT'
p6360
aI1996
aI184
aa(lp6361
S'GTTCCA'
p6362
aI469
aI35
aa(lp6363
S'GGCGTC'
p6364
aI155
aI6
aa(lp6365
S'GACCGG'
p6366
aI109
aI12
aa(lp6367
S'AGCACT'
p6368
aI558
aI32
aa(lp6369
S'TTAGAA'
p6370
aI1275
aI125
aa(lp6371
S'CGGCTG'
p6372
aI231
aI40
aa(lp6373
S'TTAGAC'
p6374
aI449
aI50
aa(lp6375
S'CGGCTC'
p6376
aI196
aI17
aa(lp6377
S'TTAGAG'
p6378
aI659
aI45
aa(lp6379
S'CGGCTA'
p6380
aI304
aI85
aa(lp6381
S'AGCACC'
p6382
aI346
aI28
aa(lp6383
S'AGCACA'
p6384
aI627
aI46
aa(lp6385
S'AGCACG'
p6386
aI326
aI34
aa(lp6387
S'GGTCGG'
p6388
aI101
aI8
aa(lp6389
S'CGGCTT'
p6390
aI294
aI23
aa(lp6391
S'TTAGAT'
p6392
aI1119
aI174
aa(lp6393
S'CCAGCA'
p6394
aI399
aI43
aa(lp6395
S'CGAAGC'
p6396
aI332
aI29
aa(lp6397
S'AAAGAA'
p6398
aI4522
aI424
aa(lp6399
S'AAAGAG'
p6400
aI1683
aI117
aa(lp6401
S'AACTAC'
p6402
aI807
aI95
aa(lp6403
S'ATATCA'
p6404
aI1729
aI209
aa(lp6405
S'CGACGT'
p6406
aI186
aI15
aa(lp6407
S'TTATTT'
p6408
aI4665
aI353
aa(lp6409
S'TGTGAG'
p6410
aI456
aI46
aa(lp6411
S'TGTGAA'
p6412
aI841
aI63
aa(lp6413
S'CTACCT'
p6414
aI437
aI38
aa(lp6415
S'TGTGAC'
p6416
aI479
aI53
aa(lp6417
S'ATATCT'
p6418
aI1618
aI157
aa(lp6419
S'CCAGCT'
p6420
aI299
aI22
aa(lp6421
S'AAAGAT'
p6422
aI1832
aI133
aa(lp6423
S'TGTGAT'
p6424
aI867
aI91
aa(lp6425
S'TTATTG'
p6426
aI1811
aI174
aa(lp6427
S'TTATTA'
p6428
aI3419
aI254
aa(lp6429
S'GAAAGC'
p6430
aI782
aI29
aa(lp6431
S'TTATTC'
p6432
aI1840
aI146
aa(lp6433
S'ACATCT'
p6434
aI763
aI59
aa(lp6435
S'TTTTAT'
p6436
aI4641
aI350
aa(lp6437
S'GCGAAC'
p6438
aI221
aI18
aa(lp6439
S'CTTACT'
p6440
aI847
aI83
aa(lp6441
S'TCCACT'
p6442
aI583
aI52
aa(lp6443
S'TACAAA'
p6444
aI1777
aI199
aa(lp6445
S'AGACGA'
p6446
aI405
aI22
aa(lp6447
S'AAGTGA'
p6448
aI1160
aI124
aa(lp6449
S'CCTCTG'
p6450
aI352
aI28
aa(lp6451
S'AGGTGG'
p6452
aI370
aI38
aa(lp6453
S'CCTCTC'
p6454
aI445
aI43
aa(lp6455
S'AGGTGC'
p6456
aI353
aI29
aa(lp6457
S'CCTCTA'
p6458
aI522
aI36
aa(lp6459
S'AGGTGA'
p6460
aI693
aI104
aa(lp6461
S'TACAAT'
p6462
aI1402
aI108
aa(lp6463
S'TCCACA'
p6464
aI497
aI58
aa(lp6465
S'TTTTAG'
p6466
aI1702
aI135
aa(lp6467
S'CAGCAT'
p6468
aI550
aI51
aa(lp6469
S'TTTTAA'
p6470
aI2962
aI187
aa(lp6471
S'ACATCA'
p6472
aI984
aI126
aa(lp6473
S'CTTACA'
p6474
aI701
aI30
aa(lp6475
S'TCCACG'
p6476
aI275
aI22
aa(lp6477
S'AGGTGT'
p6478
aI457
aI59
aa(lp6479
S'CCTCTT'
p6480
aI915
aI76
aa(lp6481
S'CGTCGG'
p6482
aI114
aI7
aa(lp6483
S'TATGAG'
p6484
aI687
aI68
aa(lp6485
S'CCCGGA'
p6486
aI257
aI47
aa(lp6487
S'CCCGGG'
p6488
aI108
aI19
aa(lp6489
S'TATGAA'
p6490
aI1577
aI153
aa(lp6491
S'TGGAAT'
p6492
aI974
aI135
aa(lp6493
S'TAGGTG'
p6494
aI407
aI45
aa(lp6495
S'TTGTGC'
p6496
aI604
aI48
aa(lp6497
S'TTGTGA'
p6498
aI852
aI103
aa(lp6499
S'TTGTGG'
p6500
aI510
aI61
aa(lp6501
S'CCCGGT'
p6502
aI158
aI17
aa(lp6503
S'GGCGTG'
p6504
aI191
aI18
aa(lp6505
S'TGGAAG'
p6506
aI935
aI116
aa(lp6507
S'TGGAAC'
p6508
aI474
aI40
aa(lp6509
S'TGGAAA'
p6510
aI1521
aI133
aa(lp6511
S'TGAGGA'
p6512
aI603
aI74
aa(lp6513
S'AAGAGG'
p6514
aI870
aI75
aa(lp6515
S'TGAGGC'
p6516
aI287
aI21
aa(lp6517
S'AAGAGA'
p6518
aI1567
aI132
aa(lp6519
S'AAGAGC'
p6520
aI751
aI37
aa(lp6521
S'AAGCGT'
p6522
aI474
aI26
aa(lp6523
S'GCTTAG'
p6524
aI349
aI26
aa(lp6525
S'GCTTAC'
p6526
aI423
aI32
aa(lp6527
S'GCTTAA'
p6528
aI606
aI33
aa(lp6529
S'TGATTC'
p6530
aI697
aI85
aa(lp6531
S'AAGCGC'
p6532
aI385
aI24
aa(lp6533
S'AAGAGT'
p6534
aI939
aI87
aa(lp6535
S'AAGCGA'
p6536
aI581
aI47
aa(lp6537
S'TGAGGT'
p6538
aI456
aI44
aa(lp6539
S'GCTTAT'
p6540
aI879
aI91
aa(lp6541
S'CTGCTA'
p6542
aI501
aI12
aa(lp6543
S'CAGCAG'
p6544
aI464
aI25
aa(lp6545
S'CTGCTC'
p6546
aI406
aI24
aa(lp6547
S'ACTTCT'
p6548
aI1191
aI110
aa(lp6549
S'GACCGT'
p6550
aI198
aI33
aa(lp6551
S'CTGCTG'
p6552
aI468
aI35
aa(lp6553
S'CGGTCA'
p6554
aI212
aI26
aa(lp6555
S'GGTCGT'
p6556
aI221
aI38
aa(lp6557
S'CTAGAG'
p6558
aI347
aI28
aa(lp6559
S'CTAGAA'
p6560
aI799
aI83
aa(lp6561
S'CGGTCG'
p6562
aI127
aI18
aa(lp6563
S'GACCGA'
p6564
aI215
aI32
aa(lp6565
S'GACCGC'
p6566
aI134
aI8
aa(lp6567
S'TTTTGG'
p6568
aI1493
aI170
aa(lp6569
S'ACTTCC'
p6570
aI635
aI56
aa(lp6571
S'CTGCTT'
p6572
aI799
aI71
aa(lp6573
S'ACTTCA'
p6574
aI874
aI54
aa(lp6575
S'CTAGAT'
p6576
aI479
aI39
aa(lp6577
S'AAGTGT'
p6578
aI849
aI76
aa(lp6579
S'CGGTCT'
p6580
aI180
aI16
aa(lp6581
S'GGTCGC'
p6582
aI146
aI17
aa(lp6583
S'GGTCGA'
p6584
aI144
aI8
aa(lp6585
S'CGTCGC'
p6586
aI209
aI48
aa(lp6587
S'CGTCGA'
p6588
aI167
aI7
aa(lp6589
S'TGAAGC'
p6590
aI687
aI85
aa(lp6591
S'GCGTGA'
p6592
aI232
aI20
aa(lp6593
S'GCGTGC'
p6594
aI207
aI20
aa(lp6595
S'TGCTCA'
p6596
aI603
aI75
aa(lp6597
S'TTCATC'
p6598
aI1130
aI134
aa(lp6599
S'TGCTCC'
p6600
aI351
aI34
aa(lp6601
S'TTCATA'
p6602
aI1587
aI117
aa(lp6603
S'TTCATG'
p6604
aI888
aI70
aa(lp6605
S'TGCTCG'
p6606
aI274
aI30
aa(lp6607
S'GTACAA'
p6608
aI829
aI44
aa(lp6609
S'GCGTGT'
p6610
aI311
aI39
aa(lp6611
S'GCTTTG'
p6612
aI618
aI37
aa(lp6613
S'CAGCAC'
p6614
aI349
aI26
aa(lp6615
S'CAGCAA'
p6616
aI785
aI70
aa(lp6617
S'ATATCC'
p6618
aI880
aI104
aa(lp6619
S'GTACAC'
p6620
aI511
aI51
aa(lp6621
S'TGCTCT'
p6622
aI665
aI23
aa(lp6623
S'TTCATT'
p6624
aI2365
aI226
aa(lp6625
S'GTAGCC'
p6626
aI281
aI15
aa(lp6627
S'TGGCCG'
p6628
aI216
aI15
aa(lp6629
S'GCTGCA'
p6630
aI479
aI42
aa(lp6631
S'AACTCT'
p6632
aI748
aI81
aa(lp6633
S'GCTGCG'
p6634
aI230
aI35
aa(lp6635
S'TGGCCA'
p6636
aI340
aI21
aa(lp6637
S'GCTTTC'
p6638
aI828
aI37
aa(lp6639
S'TCATCT'
p6640
aI1168
aI201
aa(lp6641
S'AACTCA'
p6642
aI699
aI65
aa(lp6643
S'TGGCCT'
p6644
aI370
aI36
aa(lp6645
S'AACTCC'
p6646
aI434
aI51
aa(lp6647
S'GCTGCT'
p6648
aI492
aI16
aa(lp6649
S'AACTCG'
p6650
aI324
aI29
aa(lp6651
S'GGATCC'
p6652
aI166
aI13
aa(lp6653
S'AATATT'
p6654
aI3990
aI402
aa(lp6655
S'CAACCT'
p6656
aI497
aI49
aa(lp6657
S'GCTGCC'
p6658
aI268
aI12
aa(lp6659
S'GGCACG'
p6660
aI178
aI18
aa(lp6661
S'GGCACA'
p6662
aI423
aI44
aa(lp6663
S'GACAAT'
p6664
aI756
aI70
aa(lp6665
S'GGCACC'
p6666
aI243
aI17
aa(lp6667
S'CAACCG'
p6668
aI308
aI46
aa(lp6669
S'CAGAAA'
p6670
aI1503
aI112
aa(lp6671
S'AATATG'
p6672
aI1669
aI157
aa(lp6673
S'AATATA'
p6674
aI4286
aI353
aa(lp6675
S'AGCAAG'
p6676
aI765
aI49
aa(lp6677
S'CAACCA'
p6678
aI624
aI79
aa(lp6679
S'GACAAA'
p6680
aI1049
aI83
aa(lp6681
S'GGCACT'
p6682
aI317
aI24
aa(lp6683
S'GACAAC'
p6684
aI562
aI79
aa(lp6685
S'CAGAAC'
p6686
aI544
aI45
aa(lp6687
S'GACAAG'
p6688
aI522
aI33
aa(lp6689
S'TGGCCC'
p6690
aI226
aI22
aa(lp6691
S'GCGGCG'
p6692
aI183
aI25
aa(lp6693
S'GCAATA'
p6694
aI973
aI75
aa(lp6695
S'GAATTT'
p6696
aI1664
aI186
aa(lp6697
S'CGATGG'
p6698
aI271
aI31
aa(lp6699
S'TCCCAT'
p6700
aI471
aI38
aa(lp6701
S'CGATGC'
p6702
aI333
aI58
aa(lp6703
S'GTAAAT'
p6704
aI1612
aI223
aa(lp6705
S'CGATGA'
p6706
aI750
aI193
aa(lp6707
S'GAATTA'
p6708
aI1072
aI90
aa(lp6709
S'GAATTC'
p6710
aI652
aI53
aa(lp6711
S'GCAATT'
p6712
aI920
aI57
aa(lp6713
S'TCCCAA'
p6714
aI590
aI71
aa(lp6715
S'CGATGT'
p6716
aI414
aI42
aa(lp6717
S'GTAAAA'
p6718
aI2120
aI185
aa(lp6719
S'GTAAAG'
p6720
aI972
aI55
aa(lp6721
S'TCCCAG'
p6722
aI288
aI22
aa(lp6723
S'GGATTT'
p6724
aI751
aI77
aa(lp6725
S'GTGCGT'
p6726
aI296
aI23
aa(lp6727
S'ATGGTA'
p6728
aI783
aI64
aa(lp6729
S'GGATTC'
p6730
aI523
aI87
aa(lp6731
S'GGATTA'
p6732
aI489
aI50
aa(lp6733
S'GGATTG'
p6734
aI512
aI65
aa(lp6735
S'AGCGGC'
p6736
aI260
aI19
aa(lp6737
S'CTATCA'
p6738
aI863
aI117
aa(lp6739
S'AAAGCC'
p6740
aI645
aI46
aa(lp6741
S'TCTGTG'
p6742
aI526
aI56
aa(lp6743
S'TCTGTC'
p6744
aI504
aI47
aa(lp6745
S'TCTGTA'
p6746
aI810
aI52
aa(lp6747
S'AACCGG'
p6748
aI247
aI32
aa(lp6749
S'CTCCTT'
p6750
aI821
aI66
aa(lp6751
S'GGCGGA'
p6752
aI238
aI19
aa(lp6753
S'GGCGGG'
p6754
aI173
aI19
aa(lp6755
S'AACCGA'
p6756
aI427
aI52
aa(lp6757
S'TCTGTT'
p6758
aI1053
aI86
aa(lp6759
S'ATATAC'
p6760
aI2479
aI243
aa(lp6761
S'CTCCTG'
p6762
aI287
aI39
aa(lp6763
S'AACCGT'
p6764
aI443
aI43
aa(lp6765
S'CTCCTA'
p6766
aI362
aI44
aa(lp6767
S'CTCCTC'
p6768
aI430
aI44
aa(lp6769
S'GGCGGT'
p6770
aI212
aI15
aa(lp6771
S'GACGCA'
p6772
aI300
aI44
aa(lp6773
S'CCCACG'
p6774
aI189
aI14
aa(lp6775
S'CCCACA'
p6776
aI417
aI45
aa(lp6777
S'AACAAA'
p6778
aI2882
aI332
aa(lp6779
S'TACTTC'
p6780
aI1038
aI64
aa(lp6781
S'AGCCTT'
p6782
aI633
aI72
aa(lp6783
S'AACGAC'
p6784
aI431
aI52
aa(lp6785
S'CCGATT'
p6786
aI382
aI60
aa(lp6787
S'CCCACT'
p6788
aI322
aI19
aa(lp6789
S'AACAAT'
p6790
aI2071
aI248
aa(lp6791
S'GACGCT'
p6792
aI246
aI11
aa(lp6793
S'AGCGGT'
p6794
aI284
aI15
aa(lp6795
S'CCGATA'
p6796
aI358
aI84
aa(lp6797
S'AGCCTG'
p6798
aI272
aI17
aa(lp6799
S'AGCCTA'
p6800
aI311
aI19
aa(lp6801
S'CCGATG'
p6802
aI260
aI35
aa(lp6803
S'GTACCC'
p6804
aI223
aI25
aa(lp6805
S'GTACCA'
p6806
aI518
aI68
aa(lp6807
S'TGGTTA'
p6808
aI693
aI55
aa(lp6809
S'CGCCTT'
p6810
aI416
aI26
aa(lp6811
S'AGGCAT'
p6812
aI512
aI50
aa(lp6813
S'ACCTCC'
p6814
aI348
aI62
aa(lp6815
S'CAGAGT'
p6816
aI390
aI33
aa(lp6817
S'GCATCT'
p6818
aI516
aI45
aa(lp6819
S'ACCTCG'
p6820
aI214
aI10
aa(lp6821
S'ACGAAA'
p6822
aI1173
aI128
aa(lp6823
S'CGCCTC'
p6824
aI210
aI21
aa(lp6825
S'AGGCAA'
p6826
aI754
aI97
aa(lp6827
S'CGCCTA'
p6828
aI246
aI17
aa(lp6829
S'AGGCAG'
p6830
aI356
aI20
aa(lp6831
S'CGCCTG'
p6832
aI204
aI17
aa(lp6833
S'GAGTTA'
p6834
aI557
aI66
aa(lp6835
S'CAGAGG'
p6836
aI332
aI27
aa(lp6837
S'GCATCC'
p6838
aI301
aI25
aa(lp6839
S'GCATCA'
p6840
aI525
aI56
aa(lp6841
S'CAGAGC'
p6842
aI266
aI10
aa(lp6843
S'CGGCCA'
p6844
aI218
aI12
aa(lp6845
S'CAGAGA'
p6846
aI599
aI47
aa(lp6847
S'GCCTCT'
p6848
aI412
aI41
aa(lp6849
S'CCGATC'
p6850
aI170
aI18
aa(lp6851
S'AGACTC'
p6852
aI302
aI36
aa(lp6853
S'CCTAGA'
p6854
aI300
aI19
aa(lp6855
S'ATGGTT'
p6856
aI747
aI67
aa(lp6857
S'TTTGCT'
p6858
aI1399
aI127
aa(lp6859
S'TAGCTC'
p6860
aI363
aI35
aa(lp6861
S'TGCGGT'
p6862
aI306
aI24
aa(lp6863
S'CCTAGG'
p6864
aI143
aI12
aa(lp6865
S'CCCATG'
p6866
aI238
aI21
aa(lp6867
S'TTTGCA'
p6868
aI1205
aI107
aa(lp6869
S'TGCGGA'
p6870
aI315
aI29
aa(lp6871
S'CCTAGT'
p6872
aI283
aI12
aa(lp6873
S'TGCGGG'
p6874
aI214
aI27
aa(lp6875
S'TAAGCG'
p6876
aI411
aI28
aa(lp6877
S'TGAGTT'
p6878
aI707
aI66
aa(lp6879
S'GGGACG'
p6880
aI137
aI10
aa(lp6881
S'CGGGAC'
p6882
aI106
aI6
aa(lp6883
S'ATCGCT'
p6884
aI442
aI51
aa(lp6885
S'CAGGGT'
p6886
aI290
aI38
aa(lp6887
S'GAAGGC'
p6888
aI437
aI26
aa(lp6889
S'CACCGC'
p6890
aI240
aI27
aa(lp6891
S'ATCGCC'
p6892
aI286
aI27
aa(lp6893
S'TGAGTG'
p6894
aI513
aI60
aa(lp6895
S'ATCGCA'
p6896
aI494
aI62
aa(lp6897
S'TGAGTA'
p6898
aI720
aI72
aa(lp6899
S'ATCGCG'
p6900
aI242
aI32
aa(lp6901
S'TGAGTC'
p6902
aI340
aI57
aa(lp6903
S'AAGGTG'
p6904
aI690
aI67
aa(lp6905
S'ACGGCT'
p6906
aI284
aI47
aa(lp6907
S'CATCAT'
p6908
aI1082
aI143
aa(lp6909
S'AAGGTA'
p6910
aI926
aI92
aa(lp6911
S'AAGCGG'
p6912
aI382
aI18
aa(lp6913
S'ACGGCA'
p6914
aI388
aI41
aa(lp6915
S'CATCAC'
p6916
aI717
aI111
aa(lp6917
S'AAGGTT'
p6918
aI887
aI71
aa(lp6919
S'CATCAA'
p6920
aI1122
aI155
aa(lp6921
S'CATCAG'
p6922
aI515
aI72
aa(lp6923
S'ACGGCG'
p6924
aI187
aI22
aa(lp6925
S'TCACCT'
p6926
aI692
aI102
aa(lp6927
S'CGGAAT'
p6928
aI501
aI64
aa(lp6929
S'CAATTC'
p6930
aI918
aI112
aa(lp6931
S'CTCATG'
p6932
aI383
aI30
aa(lp6933
S'GCCTCG'
p6934
aI173
aI15
aa(lp6935
S'TCACCA'
p6936
aI567
aI47
aa(lp6937
S'TCACCC'
p6938
aI392
aI57
aa(lp6939
S'CGGAAG'
p6940
aI395
aI34
aa(lp6941
S'CAACCC'
p6942
aI287
aI25
aa(lp6943
S'GCGCTG'
p6944
aI243
aI26
aa(lp6945
S'CGGCCT'
p6946
aI189
aI11
aa(lp6947
S'CGGAAC'
p6948
aI302
aI37
aa(lp6949
S'AGCTCG'
p6950
aI192
aI14
aa(lp6951
S'CGGAAA'
p6952
aI851
aI97
aa(lp6953
S'TAGCTT'
p6954
aI832
aI72
aa(lp6955
S'ATCCAG'
p6956
aI379
aI33
aa(lp6957
S'ATGGCG'
p6958
aI282
aI13
aa(lp6959
S'TGTGTA'
p6960
aI977
aI77
aa(lp6961
S'TGTGTG'
p6962
aI846
aI65
aa(lp6963
S'ATGGCA'
p6964
aI662
aI59
aa(lp6965
S'ATCCCT'
p6966
aI449
aI68
aa(lp6967
S'ATGGCT'
p6968
aI479
aI38
aa(lp6969
S'TGTGTT'
p6970
aI923
aI79
aa(lp6971
S'AGAATT'
p6972
aI1465
aI131
aa(lp6973
S'GAAACG'
p6974
aI741
aI118
aa(lp6975
S'GAAACA'
p6976
aI1370
aI142
aa(lp6977
S'AGATTG'
p6978
aI667
aI54
aa(lp6979
S'CTGAGT'
p6980
aI398
aI60
aa(lp6981
S'CCTGCC'
p6982
aI244
aI21
aa(lp6983
S'GAAACT'
p6984
aI1063
aI112
aa(lp6985
S'AGAATG'
p6986
aI964
aI90
aa(lp6987
S'AGATTT'
p6988
aI1436
aI143
aa(lp6989
S'ACATAC'
p6990
aI1075
aI125
aa(lp6991
S'CTGAGC'
p6992
aI282
aI29
aa(lp6993
S'CTGAGA'
p6994
aI445
aI32
aa(lp6995
S'CTGAGG'
p6996
aI260
aI23
aa(lp6997
S'CATACC'
p6998
aI516
aI79
aa(lp6999
S'CATACA'
p7000
aI1086
aI99
aa(lp7001
S'CATACG'
p7002
aI448
aI39
aa(lp7003
S'GCAATC'
p7004
aI518
aI62
aa(lp7005
S'TCAAAT'
p7006
aI1605
aI142
aa(lp7007
S'GTCCAT'
p7008
aI368
aI40
aa(lp7009
S'ACATAG'
p7010
aI727
aI68
aa(lp7011
S'CAGGAC'
p7012
aI297
aI44
aa(lp7013
S'CATACT'
p7014
aI810
aI71
aa(lp7015
S'AATGGC'
p7016
aI610
aI45
aa(lp7017
S'GTCCAG'
p7018
aI201
aI31
aa(lp7019
S'TCAAAG'
p7020
aI1123
aI103
aa(lp7021
S'TCAAAA'
p7022
aI2448
aI201
aa(lp7023
S'GTCCAA'
p7024
aI385
aI40
aa(lp7025
S'CGGCGG'
p7026
aI202
aI43
aa(lp7027
S'TTGATG'
p7028
aI1056
aI137
aa(lp7029
S'ATCGAG'
p7030
aI365
aI52
aa(lp7031
S'CGGCGC'
p7032
aI165
aI21
aa(lp7033
S'TTGATC'
p7034
aI748
aI87
aa(lp7035
S'CGGCGA'
p7036
aI165
aI15
aa(lp7037
S'TTGATA'
p7038
aI1797
aI231
aa(lp7039
S'TTGATT'
p7040
aI1639
aI151
aa(lp7041
S'CGGCGT'
p7042
aI157
aI12
aa(lp7043
S'ATGGCC'
p7044
aI291
aI17
aa(lp7045
S'GTACGC'
p7046
aI232
aI15
aa(lp7047
S'AAGCTG'
p7048
aI698
aI68
aa(lp7049
S'ATCGAC'
p7050
aI302
aI26
aa(lp7051
S'TATAAG'
p7052
aI1322
aI118
aa(lp7053
S'TCCAAC'
p7054
aI519
aI73
aa(lp7055
S'CGGTTA'
p7056
aI332
aI38
aa(lp7057
S'GGTTTA'
p7058
aI701
aI65
aa(lp7059
S'CGGTTC'
p7060
aI284
aI38
aa(lp7061
S'GCTGTT'
p7062
aI661
aI60
aa(lp7063
S'CGGTTG'
p7064
aI295
aI38
aa(lp7065
S'GGTTTG'
p7066
aI558
aI59
aa(lp7067
S'CCATTG'
p7068
aI622
aI61
aa(lp7069
S'TTCAGT'
p7070
aI1041
aI106
aa(lp7071
S'GCTGTG'
p7072
aI391
aI54
aa(lp7073
S'GGTTTT'
p7074
aI1189
aI102
aa(lp7075
S'CGGTTT'
p7076
aI510
aI52
aa(lp7077
S'GCTGTA'
p7078
aI468
aI26
aa(lp7079
S'GGGAGG'
p7080
aI249
aI14
aa(lp7081
S'AGGGGC'
p7082
aI247
aI46
aa(lp7083
S'AGGTTG'
p7084
aI458
aI47
aa(lp7085
S'AGGTTC'
p7086
aI439
aI38
aa(lp7087
S'AGGTTA'
p7088
aI681
aI55
aa(lp7089
S'TCCATA'
p7090
aI832
aI104
aa(lp7091
S'TTTTTC'
p7092
aI5202
aI458
aa(lp7093
S'TCCATC'
p7094
aI581
aI70
aa(lp7095
S'TTTTTA'
p7096
aI4647
aI283
aa(lp7097
S'TCCTCT'
p7098
aI790
aI49
aa(lp7099
S'TTTTTG'
p7100
aI3289
aI251
aa(lp7101
S'TCCATG'
p7102
aI410
aI50
aa(lp7103
S'TTAAAT'
p7104
aI2280
aI186
aa(lp7105
S'AGGTTT'
p7106
aI853
aI61
aa(lp7107
S'AGGGGG'
p7108
aI245
aI19
aa(lp7109
S'TTAAAC'
p7110
aI1133
aI98
aa(lp7111
S'TTAAAA'
p7112
aI3076
aI197
aa(lp7113
S'ACTCCG'
p7114
aI237
aI30
aa(lp7115
S'TTAAAG'
p7116
aI1419
aI107
aa(lp7117
S'ACTCCA'
p7118
aI450
aI50
aa(lp7119
S'TTTTTT'
p7120
aI16354
aI1427
aa(lp7121
S'ACTCCC'
p7122
aI288
aI40
aa(lp7123
S'CTGTAA'
p7124
aI776
aI61
aa(lp7125
S'TTTACG'
p7126
aI860
aI92
aa(lp7127
S'CTGTAC'
p7128
aI476
aI40
aa(lp7129
S'GCAACT'
p7130
aI485
aI15
aa(lp7131
S'GAATTG'
p7132
aI862
aI110
aa(lp7133
S'CTGTAG'
p7134
aI435
aI19
aa(lp7135
S'GTCACA'
p7136
aI485
aI79
aa(lp7137
S'ACCTAC'
p7138
aI456
aI44
aa(lp7139
S'GCAACG'
p7140
aI327
aI22
aa(lp7141
S'GTCACT'
p7142
aI512
aI55
aa(lp7143
S'TAGGCG'
p7144
aI222
aI19
aa(lp7145
S'GCAACC'
p7146
aI321
aI36
aa(lp7147
S'TAGGCA'
p7148
aI476
aI43
aa(lp7149
S'GCAACA'
p7150
aI676
aI53
aa(lp7151
S'GTAAAC'
p7152
aI857
aI90
aa(lp7153
S'ACCTGC'
p7154
aI339
aI32
aa(lp7155
S'TGGTTC'
p7156
aI514
aI64
aa(lp7157
S'ATTCAT'
p7158
aI1687
aI176
aa(lp7159
S'TCCCAC'
p7160
aI391
aI37
aa(lp7161
S'GCGATT'
p7162
aI340
aI31
aa(lp7163
S'TCGTGT'
p7164
aI392
aI44
aa(lp7165
S'TTCACT'
p7166
aI1142
aI97
aa(lp7167
S'GTCTCT'
p7168
aI504
aI25
aa(lp7169
S'TCCGTG'
p7170
aI285
aI27
aa(lp7171
S'ATTCAG'
p7172
aI756
aI81
aa(lp7173
S'ATTCAA'
p7174
aI1609
aI153
aa(lp7175
S'ATTCAC'
p7176
aI793
aI67
aa(lp7177
S'TTCACG'
p7178
aI457
aI40
aa(lp7179
S'GTCTCA'
p7180
aI385
aI40
aa(lp7181
S'GCGATG'
p7182
aI483
aI130
aa(lp7183
S'TCGTGA'
p7184
aI401
aI54
aa(lp7185
S'GCGATA'
p7186
aI456
aI40
aa(lp7187
S'TTCACA'
p7188
aI845
aI67
aa(lp7189
S'GCGATC'
p7190
aI176
aI10
aa(lp7191
S'CGATTG'
p7192
aI351
aI48
aa(lp7193
S'GAAGGA'
p7194
aI931
aI55
aa(lp7195
S'AACTGC'
p7196
aI586
aI45
aa(lp7197
S'GAAGGG'
p7198
aI506
aI42
aa(lp7199
S'CGATTA'
p7200
aI562
aI44
aa(lp7201
S'CAATCT'
p7202
aI659
aI63
aa(lp7203
S'GGAACA'
p7204
aI627
aI62
aa(lp7205
S'GGAACG'
p7206
aI335
aI34
aa(lp7207
S'ACGGCC'
p7208
aI176
aI15
aa(lp7209
S'TACTGC'
p7210
aI619
aI49
aa(lp7211
S'CGATTT'
p7212
aI678
aI68
aa(lp7213
S'GTTCCC'
p7214
aI304
aI16
aa(lp7215
S'GAAGGT'
p7216
aI589
aI61
aa(lp7217
S'CAATCG'
p7218
aI401
aI48
aa(lp7219
S'CAATCA'
p7220
aI863
aI125
aa(lp7221
S'GGAACT'
p7222
aI438
aI30
aa(lp7223
S'TCCTGA'
p7224
aI480
aI71
aa(lp7225
S'AGTCCA'
p7226
aI308
aI37
aa(lp7227
S'TCCTGC'
p7228
aI382
aI24
aa(lp7229
S'ACTAAG'
p7230
aI595
aI41
aa(lp7231
S'ACTAAA'
p7232
aI1467
aI108
aa(lp7233
S'TCCTGG'
p7234
aI324
aI35
aa(lp7235
S'AGTCCG'
p7236
aI196
aI22
aa(lp7237
S'TAACGC'
p7238
aI411
aI43
aa(lp7239
S'TAACGA'
p7240
aI703
aI64
aa(lp7241
S'CAGCTA'
p7242
aI436
aI23
aa(lp7243
S'CAGCTC'
p7244
aI299
aI20
aa(lp7245
S'ACTAAT'
p7246
aI1204
aI137
aa(lp7247
S'CGACTC'
p7248
aI236
aI46
aa(lp7249
S'AGTCCT'
p7250
aI369
aI41
aa(lp7251
S'TCCTGT'
p7252
aI531
aI51
aa(lp7253
S'CAGCTT'
p7254
aI715
aI65
aa(lp7255
S'TTCCCG'
p7256
aI340
aI34
aa(lp7257
S'TAACGT'
p7258
aI590
aI45
aa(lp7259
S'ACGGAC'
p7260
aI236
aI32
aa(lp7261
S'GTACTT'
p7262
aI948
aI107
aa(lp7263
S'CGACAT'
p7264
aI387
aI66
aa(lp7265
S'TTGTTC'
p7266
aI1309
aI110
aa(lp7267
S'TTGTTA'
p7268
aI1598
aI124
aa(lp7269
S'CCGAGA'
p7270
aI318
aI50
aa(lp7271
S'AGGAAG'
p7272
aI1010
aI69
aa(lp7273
S'CCGAGC'
p7274
aI176
aI38
aa(lp7275
S'CCGCGT'
p7276
aI139
aI16
aa(lp7277
S'GTACTG'
p7278
aI513
aI57
aa(lp7279
S'CGACAA'
p7280
aI427
aI26
aa(lp7281
S'CGACAG'
p7282
aI273
aI34
aa(lp7283
S'GTACTA'
p7284
aI602
aI27
aa(lp7285
S'CCGCGC'
p7286
aI197
aI35
aa(lp7287
S'CCGAGT'
p7288
aI190
aI23
aa(lp7289
S'CCGCGA'
p7290
aI149
aI17
aa(lp7291
S'CCGCGG'
p7292
aI190
aI34
aa(lp7293
S'TTGTTT'
p7294
aI2912
aI323
aa(lp7295
S'AACATG'
p7296
aI771
aI68
aa(lp7297
S'AGGAAC'
p7298
aI665
aI67
aa(lp7299
S'AATAAC'
p7300
aI1559
aI138
aa(lp7301
S'AATAAA'
p7302
aI4990
aI479
aa(lp7303
S'AATAAG'
p7304
aI1691
aI145
aa(lp7305
S'CATTCC'
p7306
aI566
aI69
aa(lp7307
S'AATAAT'
p7308
aI3996
aI305
aa(lp7309
S'ACGGTG'
p7310
aI337
aI46
aa(lp7311
S'CCAACC'
p7312
aI295
aI31
aa(lp7313
S'CCAACA'
p7314
aI725
aI105
aa(lp7315
S'TTATGC'
p7316
aI760
aI60
aa(lp7317
S'CCAACG'
p7318
aI262
aI25
aa(lp7319
S'CGCCGC'
p7320
aI200
aI22
aa(lp7321
S'GTGTAT'
p7322
aI942
aI76
aa(lp7323
S'CGCCGA'
p7324
aI227
aI27
aa(lp7325
S'GAGTAG'
p7326
aI390
aI12
aa(lp7327
S'TCGAGT'
p7328
aI314
aI29
aa(lp7329
S'GAGTAA'
p7330
aI738
aI56
aa(lp7331
S'AGTAAG'
p7332
aI855
aI64
aa(lp7333
S'CTCAGG'
p7334
aI299
aI39
aa(lp7335
S'CTCAGC'
p7336
aI314
aI34
aa(lp7337
S'CTCAGA'
p7338
aI436
aI44
aa(lp7339
S'GAGTAT'
p7340
aI642
aI41
aa(lp7341
S'TCGAGA'
p7342
aI527
aI107
aa(lp7343
S'GTGTAG'
p7344
aI450
aI42
aa(lp7345
S'TCGAGC'
p7346
aI263
aI28
aa(lp7347
S'GTGTAA'
p7348
aI796
aI65
aa(lp7349
S'GTGTAC'
p7350
aI440
aI46
aa(lp7351
S'CGCCGT'
p7352
aI191
aI18
aa(lp7353
S'GTGGCA'
p7354
aI438
aI70
aa(lp7355
S'CATATT'
p7356
aI1692
aI161
aa(lp7357
S'CTCGGA'
p7358
aI247
aI48
aa(lp7359
S'GTGGCG'
p7360
aI208
aI36
aa(lp7361
S'GCCGCC'
p7362
aI246
aI58
aa(lp7363
S'GCCGCA'
p7364
aI266
aI21
aa(lp7365
S'GCCGCG'
p7366
aI150
aI28
aa(lp7367
S'ACACTT'
p7368
aI909
aI77
aa(lp7369
S'CTCGGT'
p7370
aI224
aI29
aa(lp7371
S'AAGTCC'
p7372
aI368
aI44
aa(lp7373
S'TCGCTC'
p7374
aI277
aI31
aa(lp7375
S'GTGGCT'
p7376
aI354
aI43
aa(lp7377
S'CATATA'
p7378
aI2266
aI211
aa(lp7379
S'CAGTCG'
p7380
aI201
aI27
aa(lp7381
S'TACTAC'
p7382
aI868
aI80
aa(lp7383
S'ACACTC'
p7384
aI443
aI55
aa(lp7385
S'ACACTA'
p7386
aI668
aI49
aa(lp7387
S'ACACTG'
p7388
aI452
aI37
aa(lp7389
S'GCCGCT'
p7390
aI271
aI13
aa(lp7391
S'ACCGGA'
p7392
aI269
aI28
aa(lp7393
S'AAATAA'
p7394
aI4876
aI404
aa(lp7395
S'ACCGGC'
p7396
aI142
aI12
aa(lp7397
S'CTTTAG'
p7398
aI684
aI34
aa(lp7399
S'CTTTAA'
p7400
aI1410
aI116
aa(lp7401
S'AATCCT'
p7402
aI806
aI94
aa(lp7403
S'AAATAG'
p7404
aI2057
aI180
aa(lp7405
S'AACTTA'
p7406
aI1039
aI88
aa(lp7407
S'CAGGTA'
p7408
aI433
aI45
aa(lp7409
S'AACTTC'
p7410
aI959
aI74
aa(lp7411
S'CAGGTC'
p7412
aI236
aI33
aa(lp7413
S'CACGAC'
p7414
aI247
aI43
aa(lp7415
S'CACGAA'
p7416
aI521
aI77
aa(lp7417
S'CAGGTG'
p7418
aI376
aI55
aa(lp7419
S'CTTTAT'
p7420
aI1889
aI178
aa(lp7421
S'AATCCC'
p7422
aI436
aI52
aa(lp7423
S'AATCCA'
p7424
aI802
aI104
aa(lp7425
S'AAATAT'
p7426
aI4257
aI346
aa(lp7427
S'ACCGGT'
p7428
aI199
aI25
aa(lp7429
S'CACGAT'
p7430
aI374
aI33
aa(lp7431
S'CAGGTT'
p7432
aI470
aI42
aa(lp7433
S'AACTTT'
p7434
aI1837
aI136
aa(lp7435
S'GGGATA'
p7436
aI372
aI30
aa(lp7437
S'GGGATC'
p7438
aI163
aI18
aa(lp7439
S'GGGTGT'
p7440
aI342
aI52
aa(lp7441
S'GGAGAT'
p7442
aI428
aI54
aa(lp7443
S'GATGCT'
p7444
aI562
aI71
aa(lp7445
S'CGCAGT'
p7446
aI312
aI28
aa(lp7447
S'GAGTCG'
p7448
aI195
aI40
aa(lp7449
S'GAGCCT'
p7450
aI231
aI11
aa(lp7451
S'GGAGAC'
p7452
aI226
aI26
aa(lp7453
S'GGGTGA'
p7454
aI351
aI49
aa(lp7455
S'GGAGAA'
p7456
aI867
aI79
aa(lp7457
S'GGGTGC'
p7458
aI245
aI38
aa(lp7459
S'GGGATT'
p7460
aI363
aI44
aa(lp7461
S'GGGTGG'
p7462
aI261
aI65
aa(lp7463
S'GAGCCA'
p7464
aI318
aI26
aa(lp7465
S'CGCAGG'
p7466
aI220
aI15
aa(lp7467
S'GATGCG'
p7468
aI257
aI30
aa(lp7469
S'CGCAGA'
p7470
aI325
aI21
aa(lp7471
S'GATGCA'
p7472
aI551
aI48
aa(lp7473
S'GAGCCG'
p7474
aI220
aI18
aa(lp7475
S'GATGCC'
p7476
aI365
aI36
aa(lp7477
S'CGGATT'
p7478
aI372
aI42
aa(lp7479
S'GGTAGT'
p7480
aI474
aI26
aa(lp7481
S'ACCCCT'
p7482
aI280
aI43
aa(lp7483
S'GCCAAT'
p7484
aI574
aI73
aa(lp7485
S'AACCGC'
p7486
aI310
aI27
aa(lp7487
S'AGAGTC'
p7488
aI368
aI65
aa(lp7489
S'AGAAGT'
p7490
aI1138
aI113
aa(lp7491
S'ACCCCA'
p7492
aI315
aI38
aa(lp7493
S'GGTAGA'
p7494
aI405
aI23
aa(lp7495
S'GCCAAA'
p7496
aI760
aI52
aa(lp7497
S'CGGATG'
p7498
aI300
aI33
aa(lp7499
S'GCCAAG'
p7500
aI506
aI62
aa(lp7501
S'CGGATA'
p7502
aI380
aI43
aa(lp7503
S'ACCCCG'
p7504
aI211
aI33
aa(lp7505
S'GGTAGG'
p7506
aI319
aI45
aa(lp7507
S'AGAAGA'
p7508
aI1819
aI162
aa(lp7509
S'AGAAGC'
p7510
aI801
aI48
aa(lp7511
S'CAGTCT'
p7512
aI376
aI39
aa(lp7513
S'AGAAGG'
p7514
aI913
aI75
aa(lp7515
S'CACTCC'
p7516
aI344
aI33
aa(lp7517
S'CACTCA'
p7518
aI498
aI61
aa(lp7519
S'CACTCG'
p7520
aI237
aI25
aa(lp7521
S'TGCGTT'
p7522
aI547
aI41
aa(lp7523
S'GCAAGG'
p7524
aI488
aI49
aa(lp7525
S'AGCTTT'
p7526
aI1187
aI84
aa(lp7527
S'CCCCGG'
p7528
aI135
aI22
aa(lp7529
S'TGCGTA'
p7530
aI509
aI39
aa(lp7531
S'TGCGTG'
p7532
aI303
aI33
aa(lp7533
S'CCCCGA'
p7534
aI153
aI20
aa(lp7535
S'AGCTTC'
p7536
aI736
aI84
aa(lp7537
S'GAGCCC'
p7538
aI199
aI17
aa(lp7539
S'AGCTTA'
p7540
aI630
aI35
aa(lp7541
S'AGCTTG'
p7542
aI469
aI18
aa(lp7543
S'TTAGCT'
p7544
aI678
aI50
aa(lp7545
S'ACTGTG'
p7546
aI458
aI34
aa(lp7547
S'TTAGCC'
p7548
aI409
aI54
aa(lp7549
S'GCACTG'
p7550
aI349
aI28
aa(lp7551
S'TTAGCA'
p7552
aI760
aI40
aa(lp7553
S'GACCAT'
p7554
aI365
aI31
aa(lp7555
S'TTAGCG'
p7556
aI412
aI34
aa(lp7557
S'TACCGG'
p7558
aI232
aI34
aa(lp7559
S'ATAGGT'
p7560
aI614
aI36
aa(lp7561
S'ATAAGG'
p7562
aI873
aI121
aa(lp7563
S'TGTGCT'
p7564
aI648
aI38
aa(lp7565
S'AAGGGC'
p7566
aI467
aI40
aa(lp7567
S'ATAAGC'
p7568
aI827
aI76
aa(lp7569
S'AAGGGA'
p7570
aI875
aI91
aa(lp7571
S'ATAAGA'
p7572
aI1614
aI147
aa(lp7573
S'CCAGAC'
p7574
aI196
aI16
aa(lp7575
S'CCAGAA'
p7576
aI620
aI46
aa(lp7577
S'CCAGAG'
p7578
aI269
aI20
aa(lp7579
S'GCAAGT'
p7580
aI614
aI77
aa(lp7581
S'TGTGCG'
p7582
aI346
aI27
aa(lp7583
S'ATAAGT'
p7584
aI1194
aI94
aa(lp7585
S'AAGGGT'
p7586
aI629
aI88
aa(lp7587
S'TGTGCC'
p7588
aI366
aI32
aa(lp7589
S'ATAGGA'
p7590
aI851
aI89
aa(lp7591
S'TGTGCA'
p7592
aI601
aI52
aa(lp7593
S'ATAGGC'
p7594
aI447
aI42
aa(lp7595
S'GCTCGC'
p7596
aI158
aI13
aa(lp7597
S'ATACGC'
p7598
aI484
aI32
aa(lp7599
S'TTTGCG'
p7600
aI586
aI67
aa(lp7601
S'AGACCG'
p7602
aI190
aI17
aa(lp7603
S'CCAGAT'
p7604
aI461
aI74
aa(lp7605
S'AGACAA'
p7606
aI1040
aI113
aa(lp7607
S'AACAAG'
p7608
aI1196
aI79
aa(lp7609
S'CGTGGT'
p7610
aI275
aI30
aa(lp7611
S'AGACAG'
p7612
aI474
aI36
aa(lp7613
S'TTTTCT'
p7614
aI4592
aI282
aa(lp7615
S'CGCTGT'
p7616
aI330
aI25
aa(lp7617
S'GACGCC'
p7618
aI174
aI6
aa(lp7619
S'CGTGGG'
p7620
aI179
aI14
aa(lp7621
S'AGACAT'
p7622
aI706
aI61
aa(lp7623
S'CGTGGA'
p7624
aI289
aI31
aa(lp7625
S'TTTTCG'
p7626
aI1464
aI150
aa(lp7627
S'CGCTGA'
p7628
aI360
aI55
aa(lp7629
S'CGTCTT'
p7630
aI477
aI29
aa(lp7631
S'TTTTCC'
p7632
aI2339
aI176
aa(lp7633
S'TTTTCA'
p7634
aI3250
aI339
aa(lp7635
S'CGCTGG'
p7636
aI184
aI12
aa(lp7637
S'TATGGA'
p7638
aI839
aI104
aa(lp7639
S'TATGGC'
p7640
aI480
aI29
aa(lp7641
S'CGTAGG'
p7642
aI183
aI13
aa(lp7643
S'ATCGTC'
p7644
aI365
aI27
aa(lp7645
S'CGTAGA'
p7646
aI357
aI20
aa(lp7647
S'TATGGG'
p7648
aI388
aI37
aa(lp7649
S'CGTAGC'
p7650
aI226
aI16
aa(lp7651
S'CTTCAG'
p7652
aI572
aI45
aa(lp7653
S'TGGACT'
p7654
aI339
aI40
aa(lp7655
S'CGTAGT'
p7656
aI419
aI42
aa(lp7657
S'TATGGT'
p7658
aI676
aI63
aa(lp7659
S'TGGACA'
p7660
aI433
aI48
aa(lp7661
S'TGGACC'
p7662
aI240
aI34
aa(lp7663
S'TGGACG'
p7664
aI222
aI13
aa(lp7665
S'CCGGTT'
p7666
aI265
aI38
aa(lp7667
S'CTAGCT'
p7668
aI419
aI48
aa(lp7669
S'GCTTGA'
p7670
aI492
aI12
aa(lp7671
S'TGAGAC'
p7672
aI400
aI41
aa(lp7673
S'GCTTGC'
p7674
aI391
aI34
aa(lp7675
S'TGAGAA'
p7676
aI1242
aI119
aa(lp7677
S'TGAGAG'
p7678
aI513
aI46
aa(lp7679
S'GCTTGG'
p7680
aI335
aI50
aa(lp7681
S'CCTGTT'
p7682
aI574
aI45
aa(lp7683
S'CCGGTG'
p7684
aI161
aI14
aa(lp7685
S'CCGGTC'
p7686
aI116
aI8
aa(lp7687
S'CCGGTA'
p7688
aI231
aI25
aa(lp7689
S'CCTGTC'
p7690
aI283
aI19
aa(lp7691
S'CCTGTA'
p7692
aI469
aI52
aa(lp7693
S'CCTGTG'
p7694
aI301
aI21
aa(lp7695
S'CGTCTA'
p7696
aI306
aI20
aa(lp7697
S'TGAGAT'
p7698
aI855
aI110
aa(lp7699
S'GGTTGT'
p7700
aI487
aI69
aa(lp7701
S'CCCAAC'
p7702
aI356
aI59
aa(lp7703
S'CGTCTG'
p7704
aI226
aI10
aa(lp7705
S'TATTGC'
p7706
aI989
aI81
aa(lp7707
S'TAGCGT'
p7708
aI418
aI39
aa(lp7709
S'GGTTGG'
p7710
aI321
aI38
aa(lp7711
S'GGTTGA'
p7712
aI473
aI51
aa(lp7713
S'GGTTGC'
p7714
aI308
aI23
aa(lp7715
S'GGAAAC'
p7716
aI665
aI60
aa(lp7717
S'TCCCGC'
p7718
aI210
aI15
aa(lp7719
S'TCCCGA'
p7720
aI217
aI29
aa(lp7721
S'GTAACA'
p7722
aI876
aI65
aa(lp7723
S'TGCTAT'
p7724
aI930
aI67
aa(lp7725
S'CGTTTT'
p7726
aI1197
aI96
aa(lp7727
S'ATTCTC'
p7728
aI949
aI67
aa(lp7729
S'ATTCTA'
p7730
aI1211
aI106
aa(lp7731
S'ATTCTG'
p7732
aI846
aI77
aa(lp7733
S'TCATTT'
p7734
aI2167
aI173
aa(lp7735
S'CAGCGA'
p7736
aI349
aI44
aa(lp7737
S'TGCTAA'
p7738
aI775
aI33
aa(lp7739
S'TGCTAG'
p7740
aI391
aI22
aa(lp7741
S'TCCCGT'
p7742
aI282
aI13
aa(lp7743
S'AGGATC'
p7744
aI403
aI47
aa(lp7745
S'TCATTC'
p7746
aI1023
aI121
aa(lp7747
S'TCATTA'
p7748
aI1531
aI181
aa(lp7749
S'CGTTTA'
p7750
aI761
aI129
aa(lp7751
S'ATTCTT'
p7752
aI2087
aI222
aa(lp7753
S'CGTTTC'
p7754
aI765
aI104
aa(lp7755
S'TGGCAA'
p7756
aI726
aI95
aa(lp7757
S'TGGCAC'
p7758
aI416
aI31
aa(lp7759
S'TGGCAG'
p7760
aI415
aI27
aa(lp7761
S'GGCCGT'
p7762
aI176
aI19
aa(lp7763
S'GCTGAA'
p7764
aI767
aI95
aa(lp7765
S'GCTGAC'
p7766
aI282
aI22
aa(lp7767
S'TGGCAT'
p7768
aI633
aI66
aa(lp7769
S'GCTGAT'
p7770
aI533
aI66
aa(lp7771
S'AGCCTC'
p7772
aI306
aI24
aa(lp7773
S'GGCCGC'
p7774
aI137
aI10
aa(lp7775
S'CAGCCG'
p7776
aI203
aI24
aa(lp7777
S'GGCCGA'
p7778
aI200
aI27
aa(lp7779
S'GGCAAT'
p7780
aI558
aI43
aa(lp7781
S'CTATAA'
p7782
aI1236
aI125
aa(lp7783
S'CTGATT'
p7784
aI708
aI84
aa(lp7785
S'CCATCG'
p7786
aI281
aI29
aa(lp7787
S'CTAAAT'
p7788
aI1265
aI115
aa(lp7789
S'CCATCC'
p7790
aI319
aI40
aa(lp7791
S'CCATCA'
p7792
aI665
aI81
aa(lp7793
S'GGCAAG'
p7794
aI415
aI43
aa(lp7795
S'CTGATA'
p7796
aI837
aI104
aa(lp7797
S'GAGTTT'
p7798
aI832
aI79
aa(lp7799
S'CTGATG'
p7800
aI550
aI84
aa(lp7801
S'GGCAAA'
p7802
aI904
aI115
aa(lp7803
S'CTAAAG'
p7804
aI679
aI43
aa(lp7805
S'CCATCT'
p7806
aI551
aI45
aa(lp7807
S'CTAAAC'
p7808
aI725
aI69
aa(lp7809
S'ACGAAT'
p7810
aI688
aI81
aa(lp7811
S'GACACC'
p7812
aI239
aI33
aa(lp7813
S'GACACA'
p7814
aI458
aI58
aa(lp7815
S'GACACG'
p7816
aI172
aI13
aa(lp7817
S'GCGCCT'
p7818
aI263
aI28
aa(lp7819
S'TTCACC'
p7820
aI707
aI75
aa(lp7821
S'AATTCT'
p7822
aI1389
aI111
aa(lp7823
S'TACGAG'
p7824
aI384
aI39
aa(lp7825
S'TACGAC'
p7826
aI327
aI53
aa(lp7827
S'GGAAAG'
p7828
aI1016
aI68
aa(lp7829
S'TACGAA'
p7830
aI758
aI69
aa(lp7831
S'GGCGAT'
p7832
aI270
aI23
aa(lp7833
S'CGTGAG'
p7834
aI210
aI14
aa(lp7835
S'TGTTAC'
p7836
aI840
aI61
aa(lp7837
S'GCATAG'
p7838
aI396
aI27
aa(lp7839
S'ACGCTA'
p7840
aI400
aI25
aa(lp7841
S'GCATAC'
p7842
aI533
aI55
aa(lp7843
S'TCGATG'
p7844
aI560
aI115
aa(lp7845
S'TCGATA'
p7846
aI619
aI66
aa(lp7847
S'TCGATC'
p7848
aI364
aI55
aa(lp7849
S'CTATTT'
p7850
aI1979
aI169
aa(lp7851
S'TCTGGG'
p7852
aI250
aI34
aa(lp7853
S'GCATTG'
p7854
aI510
aI47
aa(lp7855
S'GAACTG'
p7856
aI485
aI46
aa(lp7857
S'TCGATT'
p7858
aI602
aI67
aa(lp7859
S'CTACCG'
p7860
aI275
aI20
aa(lp7861
S'TGGTTT'
p7862
aI1091
aI107
aa(lp7863
S'AACCAA'
p7864
aI1089
aI128
aa(lp7865
S'TGCCGG'
p7866
aI174
aI9
aa(lp7867
S'AACCAC'
p7868
aI541
aI64
aa(lp7869
S'GCGCCA'
p7870
aI278
aI27
aa(lp7871
S'AACCAG'
p7872
aI505
aI59
aa(lp7873
S'TGCCGA'
p7874
aI297
aI41
aa(lp7875
S'TTGGAC'
p7876
aI396
aI37
aa(lp7877
S'TCGGGC'
p7878
aI135
aI11
aa(lp7879
S'CCGTGC'
p7880
aI213
aI34
aa(lp7881
S'CGCGAG'
p7882
aI147
aI31
aa(lp7883
S'GCGCCG'
p7884
aI168
aI22
aa(lp7885
S'TGCCGT'
p7886
aI347
aI51
aa(lp7887
S'AACCAT'
p7888
aI800
aI74
aa(lp7889
S'CTGTTC'
p7890
aI646
aI50
aa(lp7891
S'AACAGA'
p7892
aI1133
aI103
aa(lp7893
S'GGGAGT'
p7894
aI256
aI33
aa(lp7895
S'AACAGC'
p7896
aI668
aI55
aa(lp7897
S'GTACCT'
p7898
aI436
aI38
aa(lp7899
S'AACAGG'
p7900
aI571
aI52
aa(lp7901
S'CTACCA'
p7902
aI520
aI52
aa(lp7903
S'CCCAAG'
p7904
aI282
aI25
aa(lp7905
S'GTCCCT'
p7906
aI292
aI28
aa(lp7907
S'GACGAA'
p7908
aI448
aI43
aa(lp7909
S'GACGAG'
p7910
aI225
aI22
aa(lp7911
S'CCCAAA'
p7912
aI731
aI89
aa(lp7913
S'ACGTCT'
p7914
aI341
aI25
aa(lp7915
S'GGGAGA'
p7916
aI347
aI33
aa(lp7917
S'AACAGT'
p7918
aI986
aI91
aa(lp7919
S'GGGAGC'
p7920
aI214
aI25
aa(lp7921
S'CCCAAT'
p7922
aI431
aI53
aa(lp7923
S'GACGAT'
p7924
aI381
aI30
aa(lp7925
S'GGGCGC'
p7926
aI153
aI17
aa(lp7927
S'GGGCGA'
p7928
aI164
aI27
aa(lp7929
S'GGGCGG'
p7930
aI220
aI28
aa(lp7931
S'TCTCTT'
p7932
aI1672
aI104
aa(lp7933
S'TGGGGG'
p7934
aI181
aI29
aa(lp7935
S'GTACAG'
p7936
aI448
aI44
aa(lp7937
S'TCATAC'
p7938
aI744
aI71
aa(lp7939
S'CAGAAT'
p7940
aI927
aI82
aa(lp7941
S'ACGACT'
p7942
aI337
aI46
aa(lp7943
S'TCTCTC'
p7944
aI752
aI31
aa(lp7945
S'TCTCTA'
p7946
aI769
aI51
aa(lp7947
S'TCTCTG'
p7948
aI621
aI44
aa(lp7949
S'GGGCGT'
p7950
aI152
aI9
aa(lp7951
S'GTACAT'
p7952
aI992
aI112
aa(lp7953
S'ACGACA'
p7954
aI433
aI39
aa(lp7955
S'ACGACG'
p7956
aI244
aI37
aa(lp7957
S'CAGAAG'
p7958
aI761
aI59
aa(lp7959
S'TAAGTG'
p7960
aI668
aI53
aa(lp7961
S'CACTTT'
p7962
aI1362
aI122
aa(lp7963
S'CCTAAT'
p7964
aI655
aI91
aa(lp7965
S'GCATTC'
p7966
aI556
aI49
aa(lp7967
S'TGCCCC'
p7968
aI198
aI22
aa(lp7969
S'CACTTG'
p7970
aI582
aI55
aa(lp7971
S'CCTAAC'
p7972
aI325
aI30
aa(lp7973
S'CTACCC'
p7974
aI229
aI17
aa(lp7975
S'CCTAAA'
p7976
aI765
aI74
aa(lp7977
S'CACTTC'
p7978
aI693
aI43
aa(lp7979
S'CCTAAG'
p7980
aI269
aI22
aa(lp7981
S'CACTTA'
p7982
aI709
aI46
aa(lp7983
S'GCGGAT'
p7984
aI271
aI25
aa(lp7985
S'GTCCCC'
p7986
aI144
aI13
aa(lp7987
S'AAGATT'
p7988
aI1379
aI97
aa(lp7989
S'ATCGAT'
p7990
aI630
aI88
aa(lp7991
S'GACTCG'
p7992
aI187
aI32
aa(lp7993
S'CTCATC'
p7994
aI795
aI221
aa(lp7995
S'GACTCC'
p7996
aI214
aI40
aa(lp7997
S'CTCATA'
p7998
aI690
aI71
aa(lp7999
S'GACTCA'
p8000
aI338
aI67
aa(lp8001
S'AAGATA'
p8002
aI1702
aI138
aa(lp8003
S'AGTCGG'
p8004
aI156
aI11
aa(lp8005
S'AAGATG'
p8006
aI975
aI94
aa(lp8007
S'GACTCT'
p8008
aI361
aI43
aa(lp8009
S'CTCATT'
p8010
aI907
aI96
aa(lp8011
S'ATCGAA'
p8012
aI788
aI110
aa(lp8013
S'CTCCAG'
p8014
aI288
aI32
aa(lp8015
S'CCTAGC'
p8016
aI218
aI6
aa(lp8017
S'ATATTT'
p8018
aI4252
aI365
aa(lp8019
S'ATAGAG'
p8020
aI807
aI63
aa(lp8021
S'GGACTC'
p8022
aI204
aI30
aa(lp8023
S'ATAGTT'
p8024
aI1393
aI119
aa(lp8025
S'TACTGT'
p8026
aI981
aI79
aa(lp8027
S'ATATTC'
p8028
aI1881
aI236
aa(lp8029
S'ATATTA'
p8030
aI3727
aI360
aa(lp8031
S'ATATTG'
p8032
aI1606
aI151
aa(lp8033
S'ATAGTA'
p8034
aI1509
aI117
aa(lp8035
S'TACTGA'
p8036
aI899
aI123
aa(lp8037
S'TACTGG'
p8038
aI523
aI43
aa(lp8039
S'ATAGTG'
p8040
aI767
aI55
aa(lp8041
S'ATAGAC'
p8042
aI657
aI92
aa(lp8043
S'CAGGCA'
p8044
aI359
aI40
aa(lp8045
S'ACGGAA'
p8046
aI659
aI73
aa(lp8047
S'CATCCG'
p8048
aI278
aI27
aa(lp8049
S'AGGAAA'
p8050
aI2039
aI118
aa(lp8051
S'CATCCA'
p8052
aI489
aI32
aa(lp8053
S'CAGGCG'
p8054
aI205
aI15
aa(lp8055
S'CATCCC'
p8056
aI292
aI40
aa(lp8057
S'TTATGA'
p8058
aI1257
aI121
aa(lp8059
S'CAAGCT'
p8060
aI444
aI23
aa(lp8061
S'CGGAGT'
p8062
aI234
aI24
aa(lp8063
S'TTATGG'
p8064
aI749
aI89
aa(lp8065
S'CATCCT'
p8066
aI574
aI82
aa(lp8067
S'AGGAAT'
p8068
aI990
aI109
aa(lp8069
S'CAGGCT'
p8070
aI260
aI15
aa(lp8071
S'ACGGAT'
p8072
aI452
aI58
aa(lp8073
S'CGGAGA'
p8074
aI289
aI31
aa(lp8075
S'CTGAAA'
p8076
aI1369
aI149
aa(lp8077
S'CGGAGC'
p8078
aI166
aI15
aa(lp8079
S'TTATGT'
p8080
aI1551
aI117
aa(lp8081
S'CAGGCC'
p8082
aI199
aI17
aa(lp8083
S'CGGAGG'
p8084
aI200
aI25
aa(lp8085
S'ATGGAA'
p8086
aI1334
aI156
aa(lp8087
S'ATGGAC'
p8088
aI386
aI45
aa(lp8089
S'ATGGAG'
p8090
aI534
aI69
aa(lp8091
S'CGCTTG'
p8092
aI334
aI25
aa(lp8093
S'CGCTTA'
p8094
aI399
aI34
aa(lp8095
S'CGCTTC'
p8096
aI413
aI17
aa(lp8097
S'ATGGAT'
p8098
aI761
aI111
aa(lp8099
S'TGCGGC'
p8100
aI261
aI37
aa(lp8101
S'CGCTTT'
p8102
aI711
aI53
aa(lp8103
S'ATCCCC'
p8104
aI227
aI13
aa(lp8105
S'ACTTGG'
p8106
aI449
aI38
aa(lp8107
S'TTTGCC'
p8108
aI848
aI95
aa(lp8109
S'GAAAAG'
p8110
aI2334
aI167
aa(lp8111
S'TAAACC'
p8112
aI722
aI70
aa(lp8113
S'GAAAAC'
p8114
aI1490
aI116
aa(lp8115
S'CAAGCA'
p8116
aI671
aI50
aa(lp8117
S'GAAAAA'
p8118
aI5528
aI603
aa(lp8119
S'GTTCCT'
p8120
aI623
aI52
aa(lp8121
S'TAGGGC'
p8122
aI229
aI22
aa(lp8123
S'CAAGCG'
p8124
aI342
aI12
aa(lp8125
S'GAAAAT'
p8126
aI2635
aI229
aa(lp8127
S'ACAAGG'
p8128
aI630
aI51
aa(lp8129
S'ACAAGA'
p8130
aI1224
aI96
aa(lp8131
S'ACAAGC'
p8132
aI542
aI28
aa(lp8133
S'ACACGT'
p8134
aI379
aI40
aa(lp8135
S'CTGCGT'
p8136
aI333
aI25
aa(lp8137
S'GACGTC'
p8138
aI168
aI15
aa(lp8139
S'GCGGAG'
p8140
aI220
aI23
aa(lp8141
S'CATAAG'
p8142
aI687
aI63
aa(lp8143
S'GCGGAA'
p8144
aI487
aI57
aa(lp8145
S'CATAAA'
p8146
aI1766
aI167
aa(lp8147
S'GCCAAC'
p8148
aI343
aI30
aa(lp8149
S'CATAAC'
p8150
aI696
aI48
aa(lp8151
S'ACACGC'
p8152
aI305
aI38
aa(lp8153
S'ACAAGT'
p8154
aI740
aI42
aa(lp8155
S'ACACGA'
p8156
aI392
aI52
aa(lp8157
S'ACACGG'
p8158
aI174
aI15
aa(lp8159
S'CCTCCC'
p8160
aI290
aI19
aa(lp8161
S'CATAAT'
p8162
aI1385
aI99
aa(lp8163
S'GTCCCA'
p8164
aI268
aI39
aa(lp8165
S'CTGCGG'
p8166
aI230
aI31
aa(lp8167
S'CTGCGA'
p8168
aI254
aI20
aa(lp8169
S'GTCCCG'
p8170
aI118
aI6
aa(lp8171
S'CGGCAA'
p8172
aI373
aI37
aa(lp8173
S'CGGCAC'
p8174
aI210
aI26
aa(lp8175
S'CGGCAG'
p8176
aI240
aI30
aa(lp8177
S'GACGCG'
p8178
aI216
aI49
aa(lp8179
S'CCTCCT'
p8180
aI389
aI39
aa(lp8181
S'AGCGCT'
p8182
aI292
aI20
aa(lp8183
S'CGGCAT'
p8184
aI278
aI24
aa(lp8185
S'AGGCAC'
p8186
aI337
aI49
aa(lp8187
S'CCTCCA'
p8188
aI400
aI48
aa(lp8189
S'CACGCC'
p8190
aI203
aI26
aa(lp8191
S'CCTCCG'
p8192
aI199
aI25
aa.