(ialigned
Aligned
p0
(dp1
S'seqs'
p2
(dp3
S'C.sativus.1'
p4
S'CCAUCC-CCUGGGUUAACUCUACU-UACUGUA-GGGAGGUUGCGAAUA'
p5
sS'T.adhaerens.1'
p6
S'UCGUCU-UUACAGUUAAUAACGUCGUACUUAGUGGGUGACCUUGACCU'
p7
sS'Prochloron.1'
p8
S'CCAUCCCACUCUGUGAACUUUGCU-UACUUGCUGGGUUGCGCUGAAUA'
p9
sS'T.rangeli.1'
p10
S'CCGUCCAUCUGAGUUAACGCGCACGUACGGCGUGCGUGAUCGCUCCGG'
p11
sS'H.saccharovorum.1'
p12
S'CCAUUCCACACAGUUAACCCACCAGUACUGGAUGAGCGAUUCUGGCGG'
p13
sS'C.parvum.1'
p14
S'CCAUCA-ACUCAGUCAACGGUGUAGUACUAGGUGGGGGACCCUGACCA'
p15
sS'H.oculata.1'
p16
S'CCAUCU-ACACAGUUAACAACGUCGUACCUGGUGGGUGACCCUGCGCU'
p17
sS'T.aquaticus.1'
p18
S'CCAUUCCACACAGUGAACGCGCCAGUACUGGG-CCGCAGGCCUGAGUA'
p19
sS'T.thioparus.1'
p20
S'CCAUCCCACAGGGUGAACGCUCCCGUA------GGCACCUCCUGAGUA'
p21
sS'L.illini.1'
p22
S'CCAUCCCACACAGUUAACCCCUCAGUACUGCA-AGUUCGCUGUGAGCA'
p23
sS'E.bicyclis.1'
p24
S'CCGUCC-UCUGAGUUAACGGCGUCGUACUACGUGGGGGACCGUGCCCU'
p25
sS'M.rubra.1'
p26
S'CCAUCCCACUCAGUGAACCGCUUA-UAGUGUG-CAGGU-UCAUGAGUA'
p27
sS'A.bromoides.2'
p28
S'CCAUCA-ACUCAGUUAACGUGCUUGUACUAGGUGGGG--CGAGUAGGA'
p29
sS'A.piechaudii.1'
p30
S'CCAUCCCACAGAGUGAACGCCUUC-UA--GUG-ACGGACGUGUGAGUA'
p31
sS'L.anatina.2'
p32
S'UCGUCC-UCACAGUUAACAACGUCGUACUUGGUGGGUGACCCUGACCU'
p33
sS'L.anatina.1'
p34
S'UCGUCC-UCACAGUCAACCCGGUAGUACUUGGUGGGUGACCCUGACCU'
p35
sS'H.vallismortis.1'
p36
S'CCAUCCCACACAGAUAACCCACCAGUACUGGAUGCGCGACUCUGACCG'
p37
sS'M.polymorpha.1'
p38
S'CCAUCA-ACUCAGUUAACGCCCUUGUACUGGGUGGGUGACCCCGUCCC'
p39
sS'T.monococcum.1'
p40
S'CCAUCA-ACUCAGUUAACGUGCUUGUACUAUGUGGGUGACCCUGUCCU'
p41
sS'G.xylinus.1'
p42
S'CCAUCCCACUCCGUGAAUGCCCCA-UACUGUG-CCUUAAGCACGAGUC'
p43
sS'E.albidus.1'
p44
S'UCGUCC-UCACAGUUAACAACGUCGUACUUGGUGGGUGACCCUGACCG'
p45
sS'P.longispora.1'
p46
S'ACAUUCCACCCAGUUAACUCUUCAGUACUGCA-UCGGGAGUGUGAGUA'
p47
sS'S.acidocaldarius.1'
p48
S'UCGUUUCACCCAGUUAACCGCUCAGCCGUGGGUCCGAGAGCCC-UCUC'
p49
sS'P.falciparum.1'
p50
S'CCAUCA-ACUCAGUUAACACUGUAGUACUGAGUGGGAGACCUCGACCA'
p51
sS'A.punctatus.1'
p52
S'CCAUCA-ACUCAGUUAACGCCCUUGUACUGGGUGGGUGACCCCGUCCC'
p53
sS'B.abortus.2'
p54
S'CCAUUCCACUCCGUGAACGCUCCAGUACUUCGUCU--CAACGCGAGUA'
p55
sS'B.abortus.1'
p56
S'CCAUUCCACUCCGUGAACGCUCCAGUACUUCG-UCUCAAGGA--AGUA'
p57
sS'C.bifermentans.1'
p58
S'CCAUUCCACACAGUUAACUCUUUAGUACUUGGUGGGAAGCCCUGAGUA'
p59
sS'H.pomatia.1'
p60
S'UCGUCC-UCACAGUCAACAACGUCGUACUUAGUGGGUGACCUUGACCA'
p61
sS'S.hordei.1'
p62
S'CCAUUCCACCCAGCUAACUCCCCAGUACUGCA-UCGGUAGUGUGAGUA'
p63
sS'M.flocculare.1'
p64
S'CCAUUCCACUCAGUUAACCUUUUU-UACUAGA----AUA-----AAUA'
p65
sS'S.rectivirgula.1'
p66
S'CCAUACCACCCAGCUAACUCCCCAGUACUGCA-CCGGUGGUGUGAGUA'
p67
sS'A.rufus.1'
p68
S'UCGUCC-UCACAGUCAACAACGUCGUACUUAGUGGGUGACCUUGACCA'
p69
sS'M.trichosporium.1'
p70
S'CCAUCCCACUCAGUGAACCGCUUA-UAGUGUGCCGUU--UCAUGAGUA'
p71
sS'M.acetivorans.1'
p72
S'CCAUUCCACACAGAUAACCUGCCCGUACUGAAUGUGCGAGUUCGCUCU'
p73
sS'R.thiosulfatophilus.1'
p74
S'CCAUCCCGCUCCGUGAACACUCCAGUACCGAG-GCUUAAGGCG-AGUC'
p75
sS'N.albus.1'
p76
S'CCAUCCCACCCAGUCAACCCUUCAGUACUGCA-CCGAGAGUGUGAGUA'
p77
sS'A.kurodai.1'
p78
S'UCGUCC-UCACAGUCAACAACGUCGUACUUAGUGGGUGACCUUGACCA'
p79
sS'V.aestuarianus.1'
p80
S'CUAUGCCACUCAGUGAACGUAAUAGUAGUGUG-GGGCUUCCAUGAGUA'
p81
sS'L.sativa.1'
p82
S'CCAUCA-ACUCAGUUAACGUGCUUGUACUAGGUGGGUGACCCUGUCCU'
p83
sS'P.tenera.1'
p84
S'CCAUUCCAUUCAGUCAACGUCCGCGUAGUCUGUGAGGGAUCAGGCCCC'
p85
sS'F.magna.1'
p86
S'CCAUGCCACACAGUUAACCUCUUAGUACUACG-UGGAAACCGUGAGUA'
p87
sS'E.glandulosa.1'
p88
S'CCGUCC-UCUGAGUUAACAGAGUAGUACCAUGUGGGGGACUGCGCCUG'
p89
sS'Thiovulum.1'
p90
S'CCAUUUCACCUAGUUAACUUUUCU-UACUGCC-CCCUACGGGUGGGUA'
p91
sS'O.vulgaris.1'
p92
S'UCGUCC-UCACAGUUAACAACAUCGUACUUAGUGGGUGACCUUGCCUA'
p93
sS'Lycopodium_clavatum_.1'
p94
S'CCAUCA-ACUCAGUUAACGUGCUUGUACUGGGUGGGUGACCCCGGUCC'
p95
sS'C.flagelliformis.1'
p96
S'CCGUCC-UCUGAGUUAACGGCGUCGUACUACGUGGGGGACCGUGCCCU'
p97
sS'V.metschnikovii.1'
p98
S'CCAUGCCACUCAGUGAACGAAACAGUAGUGUG-GGGUUUCCAUGAGUA'
p99
sS'A.xylosoxidans.1'
p100
S'CCAUCCCACAGAGUGAACGCCUUU-UA--GUG-ACGGACGUGUGAGUA'
p101
sS'A.parasiticum.1'
p102
S'UCGUCC-UCUGAGUUAACUGCUAUGUACUGCGUGGGGGACCGCGACCA'
p103
sS'C.variabile.1'
p104
S'CCUUUCCACCCAGCUAACCUGCCUGUACUGCA-CUGGGAGUGUGAGUA'
p105
sS'S.ursincola.1'
p106
S'CCAUCUCACUCCGUGAACCUGACUGUACUACC-GCUUAAGUU--AGUA'
p107
sS'M.juglandis.1'
p108
S'CCGUCC-UCUGAAUCAACUGUGUAGUACCGGAUGGGGGACUCCGCCUG'
p109
sS'B.bacilliformis.1'
p110
S'CCAUCCCACUCCGUGAACGUUCCAGUACUUUGUCU--UAACACGAGUA'
p111
sS'L.lactis.2'
p112
S'CCAUGUCACACAGUCAAUCCUUUUGUACUUGG-GGGUUGCCCUGAUAA'
p113
sS'L.lactis.1'
p114
S'CCAUGUCACACAGUUAAUCCAUCUGUACUUGG-GGGUUGCCCUGAUAU'
p115
sS'P.lividus.1'
p116
S'UCGUCC-UCACAGUCAACAGCAUAGUACUUGGUGGGAGACCCUGACCG'
p117
sS'D.mobilis.1'
p118
S'UCGUUUCACCCAGUUAACCGGCCAGCCGUGAGUCCGAGAGCCUCCGUU'
p119
sS'A.delafieldii.1'
p120
S'CCAUCCCACAGAGUGAACGACUUU-UA---GUCGGGUUCCUGUGAGUA'
p121
sS'P.ostreatus.1'
p122
S'CCGUCU-UCUGAGUUAACAGAGUGGUACCACGUGGGGGACCGCGCCUG'
p123
sS'E.nidulans.1'
p124
S'CCGUCC-UCAGACUUAACCACACGGUAGUAUGUGGGUGACCAUGCCCU'
p125
sS'A.vacuolatus.1'
p126
S'UCACUCCACUCCGUUAACUCCUCAGUACUAUGUCU--CAACCUGAGUA'
p127
sS'E.nidulans.3'
p128
S'CCGUCC-UCAGACUUAACCACACGGUAGUAUGUGGGUGACCAUGCCCA'
p129
sS'E.nidulans.2'
p130
S'CCGUCC-UCAGACUUAACCACACGGUAGUAUGUGGGUGACCAUGCCCA'
p131
sS'V.filiformis.1'
p132
S'CCAUCCCACAGAGUGAACGCCUUA-UAGUGC--GGUUCUCCGUGAGUA'
p133
sS'A.bromoides.1'
p134
S'CCAUCA-ACUCAGUUAACGUGCUUGUACUAGGUGGGUGACCGAGACUA'
p135
sS'H.pseudoflava.1'
p136
S'CCAUCCCACAGAGUGAACGACUUU-UAGU----GAGGGUUCGUGAGUA'
p137
sS'M.tuberculosis.1'
p138
S'CCAUUCCACCCAGCUAACCUGCCA-UACUGCC-CCUCCGG----AGUA'
p139
sS'B.quintana.1'
p140
S'CCAUCCCACUCCGUGAACGUUCCAGUACUUUG-CCUCAAGAC--AGUA'
p141
sS'E.longus.1'
p142
S'CCAUCUCACUCCGUGAACCAGUUAGUACUAUGUCU--UAACAUGAGUA'
p143
sS'S.aureus.1'
p144
S'CCAUGCCACACAGUUAACUCCUUAGUAGUCGA-ACUUACGCCG-AGUA'
p145
sS'Ureaplasma_urealytic.1'
p146
S'CCAUCCCACACAGUCAACACUCUA-UA------GCGCAAG----AAUA'
p147
sS'C.biazotea.1'
p148
S'CCAUUCCACCCAGCUAACCCUUCAGUACUGCA-UCGCCAGUGUGAGUA'
p149
sS'P.trichomanes.1'
p150
S'CCAUCA-ACUCAGUUAACGCCUUUGUACUGGGUGGGUGACCCCGUCCC'
p151
sS'A.cryptum.1'
p152
S'CCAUCCCACUCCGUGAAAUCCCCAGUACUGUG-CCUCAAGCACGAGUA'
p153
sS'E.sulcatum.1'
p154
S'CCGUCC-UUUCAGUUAACCUCAUCGUACUAGGUGGGCGACCCUGCGGA'
p155
sS'S.griseus.1'
p156
S'ACAUUCCACCCAGCUAACCUUUCAGUACUGCA-GGGGGACUGUGAGUA'
p157
sS'S.griseus.2'
p158
S'ACAUUCCACCCAGCUAACCUUACAGUACUGCA-GGGGGACUGUGAGUA'
p159
sS'S.roseoverticillatus.1'
p160
S'ACAUUCCACCCAGCUAACCUUUCGGUACUGCAUGGGGGACUGUGAGUA'
p161
sS'M.thermolithotrophic.1'
p162
S'CCGUCCCUCUCAAUUAACCCUCCAGUACUGCCU---UUG--GUGAGGG'
p163
sS'B.amyloliquefaciens.1'
p164
S'CCAUCCCACACCGUGAAACCUCCA-UACUGGG-GGGCAGCCCUGAGUA'
p165
sS'S.salivarius.1'
p166
S'CCAUGCCACACAGUUAACCCUAGUGUAGUUGG-GGGUUGCCCUGAUAC'
p167
sS'B.alba.1'
p168
S'CCAUCCCACUCAGUGAACUGUUCU-UAGUGUG-GAUACUCCAUGAGUA'
p169
sS'S.purpureus.1'
p170
S'ACAUUCCACCCAGCUAACCUUUCAGUACUGCA-GGGGGACUGUGAGUA'
p171
sS'C.crispata.1'
p172
S'CCAUCUCACUGAGUUAAUCUCCUCGUACUGAGUCAGGGAUCUCGCGCG'
p173
sS'C.reinhardtii.1'
p174
S'CCAUUA-ACUGAGAUAAUAUGAAUGUAGUACGUGGGGGACCGUGCCUC'
p175
sS'C.reinhardtii.2'
p176
S'CCAUCA-ACUGAGAUAACCUGAAUGUAGUACGUGGGGGACCGUGCCUC'
p177
sS'F.capsuligenum.1'
p178
S'CCGUCC-UCUGAGUUAACAGAGUGGUACCACGUGGGGGACCGCGCCUA'
p179
sS'S.inulinus.1'
p180
S'CCAUCCCACACCGUUAACUCUUCUGUAAUUGG-GGCUGUCCCUGAGUA'
p181
sS'B.mori.1'
p182
S'UCGUCC-UCACAGUCAACAACAUCGUACUUGGUGGGUGACCCUGACCA'
p183
sS'G.hirsutum.1'
p184
S'CCAUCA-ACUCAGUUAACGUGCUUGUACUAGGUGGGUGACCCUGUCCU'
p185
sS'E.cuniculi.1'
p186
S'UCGUCA-UCUCAGUUAACCCGUGCGUACUGAGAGGGAGACCUCGACCG'
p187
sS'S.kowalevskii.1'
p188
S'UCGUCC-UCACAGUUAACUGCGUCGUACUUGCUGGGAGACGCUGACCA'
p189
sS'B.henselae.1'
p190
S'CCAUCCCACUCCGUGAACGCUCCAGUACUUUG-CCUCAAGAC--AGUA'
p191
sS'H.patagonicum.4'
p192
S'CCAUCA-ACUCAGUUAACGUGCUUGUACUAG--GAUCGAUCAU-ACUC'
p193
sS'H.patagonicum.7'
p194
S'CCAUCA-ACUCAGUUAACGUGCUUGUUCUAGGUGGGUGACCCUGUCCU'
p195
sS'V.cincinnatiensis.1'
p196
S'CCAUGCCACUCAGUGAACGAAACAGUAGUGUG-GGGUCUCCAUGAGUA'
p197
sS'C.zawadskii.1'
p198
S'CCAUCA-ACUCAGUUAACGUGCUCGUACUGGCUGGGUGAC----AUUU'
p199
sS'H.sapiens.1'
p200
S'UCAUCU-UCUCAGCCAACAGGGUGGUACUUGGUGGGAGACCCUGUAUA'
p201
sS'M.vacuolata.1'
p202
S'CCAUCCCACACAGAUAACCUGCCCGUACUGAAUGUGCGAGUUCGCUCU'
p203
ssS'folds'
p204
(dp205
sS'consensus'
p206
Nsb.