(ialigned
Aligned
p0
(dp1
S'seqs'
p2
(dp3
S'C.sativus.1'
p4
S'CCAUCC-CCUGGGUUAACUCUACU-UACUGUA-GGGAGGUUGCGAAUA'
p5
sS'T.adhaerens.1'
p6
S'UCGUCU-UUACAGUUAAUAACGUCGUACUUAGUGGGUGACCUUGACCU'
p7
sS'H.sapiens.1'
p8
S'UCAUCU-UCUCAGCCAACAGGGUGGUACUUGGUGGGAGACCCUGUAUA'
p9
sS'Prochloron.1'
p10
S'CCAUCCCACUCUGUGAACUUUGCU-UACUUGCUGGGUUGCGCUGAAUA'
p11
sS'B.henselae.1'
p12
S'CCAUCCCACUCCGUGAACGCUCCAGUACUUUG-CCUCAAGAC--AGUA'
p13
sS'T.rangeli.1'
p14
S'CCGUCCAUCUGAGUUAACGCGCACGUACGGCGUGCGUGAUCGCUCCGG'
p15
sS'H.saccharovorum.1'
p16
S'CCAUUCCACACAGUUAACCCACCAGUACUGGAUGAGCGAUUCUGGCGG'
p17
sS'C.parvum.1'
p18
S'CCAUCA-ACUCAGUCAACGGUGUAGUACUAGGUGGGGGACCCUGACCA'
p19
sS'H.patagonicum.4'
p20
S'CCAUCA-ACUCAGUUAACGUGCUUGUACUAG--GAUCGAUCAU-ACUC'
p21
sS'T.aquaticus.1'
p22
S'CCAUUCCACACAGUGAACGCGCCAGUACUGGG-CCGCAGGCCUGAGUA'
p23
sS'L.illini.1'
p24
S'CCAUCCCACACAGUUAACCCCUCAGUACUGCA-AGUUCGCUGUGAGCA'
p25
sS'E.bicyclis.1'
p26
S'CCGUCC-UCUGAGUUAACGGCGUCGUACUACGUGGGGGACCGUGCCCU'
p27
sS'H.patagonicum.7'
p28
S'CCAUCA-ACUCAGUUAACGUGCUUGUUCUAGGUGGGUGACCCUGUCCU'
p29
sS'M.rubra.1'
p30
S'CCAUCCCACUCAGUGAACCGCUUA-UAGUGUG-CAGGU-UCAUGAGUA'
p31
sS'A.bromoides.2'
p32
S'CCAUCA-ACUCAGUUAACGUGCUUGUACUAGGUGGGG--CGAGUAGGA'
p33
sS'A.piechaudii.1'
p34
S'CCAUCCCACAGAGUGAACGCCUUC-UA--GUG-ACGGACGUGUGAGUA'
p35
sS'L.anatina.2'
p36
S'UCGUCC-UCACAGUUAACAACGUCGUACUUGGUGGGUGACCCUGACCU'
p37
sS'L.anatina.1'
p38
S'UCGUCC-UCACAGUCAACCCGGUAGUACUUGGUGGGUGACCCUGACCU'
p39
sS'H.vallismortis.1'
p40
S'CCAUCCCACACAGAUAACCCACCAGUACUGGAUGCGCGACUCUGACCG'
p41
sS'M.polymorpha.1'
p42
S'CCAUCA-ACUCAGUUAACGCCCUUGUACUGGGUGGGUGACCCCGUCCC'
p43
sS'F.capsuligenum.1'
p44
S'CCGUCC-UCUGAGUUAACAGAGUGGUACCACGUGGGGGACCGCGCCUA'
p45
sS'T.monococcum.1'
p46
S'CCAUCA-ACUCAGUUAACGUGCUUGUACUAUGUGGGUGACCCUGUCCU'
p47
sS'G.xylinus.1'
p48
S'CCAUCCCACUCCGUGAAUGCCCCA-UACUGUG-CCUUAAGCACGAGUC'
p49
sS'M.vacuolata.1'
p50
S'CCAUCCCACACAGAUAACCUGCCCGUACUGAAUGUGCGAGUUCGCUCU'
p51
sS'E.albidus.1'
p52
S'UCGUCC-UCACAGUUAACAACGUCGUACUUGGUGGGUGACCCUGACCG'
p53
sS'P.longispora.1'
p54
S'ACAUUCCACCCAGUUAACUCUUCAGUACUGCA-UCGGGAGUGUGAGUA'
p55
sS'S.acidocaldarius.1'
p56
S'UCGUUUCACCCAGUUAACCGCUCAGCCGUGGGUCCGAGAGCCC-UCUC'
p57
sS'P.falciparum.1'
p58
S'CCAUCA-ACUCAGUUAACACUGUAGUACUGAGUGGGAGACCUCGACCA'
p59
sS'A.punctatus.1'
p60
S'CCAUCA-ACUCAGUUAACGCCCUUGUACUGGGUGGGUGACCCCGUCCC'
p61
sS'B.abortus.2'
p62
S'CCAUUCCACUCCGUGAACGCUCCAGUACUUCGUCU--CAACGCGAGUA'
p63
sS'B.abortus.1'
p64
S'CCAUUCCACUCCGUGAACGCUCCAGUACUUCG-UCUCAAGGA--AGUA'
p65
sS'C.bifermentans.1'
p66
S'CCAUUCCACACAGUUAACUCUUUAGUACUUGGUGGGAAGCCCUGAGUA'
p67
sS'H.pomatia.1'
p68
S'UCGUCC-UCACAGUCAACAACGUCGUACUUAGUGGGUGACCUUGACCA'
p69
sS'S.hordei.1'
p70
S'CCAUUCCACCCAGCUAACUCCCCAGUACUGCA-UCGGUAGUGUGAGUA'
p71
sS'M.flocculare.1'
p72
S'CCAUUCCACUCAGUUAACCUUUUU-UACUAGA----AUA-----AAUA'
p73
sS'S.rectivirgula.1'
p74
S'CCAUACCACCCAGCUAACUCCCCAGUACUGCA-CCGGUGGUGUGAGUA'
p75
sS'A.rufus.1'
p76
S'UCGUCC-UCACAGUCAACAACGUCGUACUUAGUGGGUGACCUUGACCA'
p77
sS'M.trichosporium.1'
p78
S'CCAUCCCACUCAGUGAACCGCUUA-UAGUGUGCCGUU--UCAUGAGUA'
p79
sS'M.acetivorans.1'
p80
S'CCAUUCCACACAGAUAACCUGCCCGUACUGAAUGUGCGAGUUCGCUCU'
p81
sS'R.thiosulfatophilus.1'
p82
S'CCAUCCCGCUCCGUGAACACUCCAGUACCGAG-GCUUAAGGCG-AGUC'
p83
sS'N.albus.1'
p84
S'CCAUCCCACCCAGUCAACCCUUCAGUACUGCA-CCGAGAGUGUGAGUA'
p85
sS'A.kurodai.1'
p86
S'UCGUCC-UCACAGUCAACAACGUCGUACUUAGUGGGUGACCUUGACCA'
p87
sS'V.aestuarianus.1'
p88
S'CUAUGCCACUCAGUGAACGUAAUAGUAGUGUG-GGGCUUCCAUGAGUA'
p89
sS'L.sativa.1'
p90
S'CCAUCA-ACUCAGUUAACGUGCUUGUACUAGGUGGGUGACCCUGUCCU'
p91
sS'P.tenera.1'
p92
S'CCAUUCCAUUCAGUCAACGUCCGCGUAGUCUGUGAGGGAUCAGGCCCC'
p93
sS'F.magna.1'
p94
S'CCAUGCCACACAGUUAACCUCUUAGUACUACG-UGGAAACCGUGAGUA'
p95
sS'E.glandulosa.1'
p96
S'CCGUCC-UCUGAGUUAACAGAGUAGUACCAUGUGGGGGACUGCGCCUG'
p97
sS'Thiovulum.1'
p98
S'CCAUUUCACCUAGUUAACUUUUCU-UACUGCC-CCCUACGGGUGGGUA'
p99
sS'H.oculata.1'
p100
S'CCAUCU-ACACAGUUAACAACGUCGUACCUGGUGGGUGACCCUGCGCU'
p101
sS'O.vulgaris.1'
p102
S'UCGUCC-UCACAGUUAACAACAUCGUACUUAGUGGGUGACCUUGCCUA'
p103
sS'Lycopodium_clavatum_.1'
p104
S'CCAUCA-ACUCAGUUAACGUGCUUGUACUGGGUGGGUGACCCCGGUCC'
p105
sS'C.flagelliformis.1'
p106
S'CCGUCC-UCUGAGUUAACGGCGUCGUACUACGUGGGGGACCGUGCCCU'
p107
sS'V.metschnikovii.1'
p108
S'CCAUGCCACUCAGUGAACGAAACAGUAGUGUG-GGGUUUCCAUGAGUA'
p109
sS'S.kowalevskii.1'
p110
S'UCGUCC-UCACAGUUAACUGCGUCGUACUUGCUGGGAGACGCUGACCA'
p111
sS'A.xylosoxidans.1'
p112
S'CCAUCCCACAGAGUGAACGCCUUU-UA--GUG-ACGGACGUGUGAGUA'
p113
sS'A.parasiticum.1'
p114
S'UCGUCC-UCUGAGUUAACUGCUAUGUACUGCGUGGGGGACCGCGACCA'
p115
sS'C.variabile.1'
p116
S'CCUUUCCACCCAGCUAACCUGCCUGUACUGCA-CUGGGAGUGUGAGUA'
p117
sS'S.ursincola.1'
p118
S'CCAUCUCACUCCGUGAACCUGACUGUACUACC-GCUUAAGUU--AGUA'
p119
sS'M.juglandis.1'
p120
S'CCGUCC-UCUGAAUCAACUGUGUAGUACCGGAUGGGGGACUCCGCCUG'
p121
sS'T.thioparus.1'
p122
S'CCAUCCCACAGGGUGAACGCUCCCGUA------GGCACCUCCUGAGUA'
p123
sS'B.bacilliformis.1'
p124
S'CCAUCCCACUCCGUGAACGUUCCAGUACUUUGUCU--UAACACGAGUA'
p125
sS'L.lactis.2'
p126
S'CCAUGUCACACAGUCAAUCCUUUUGUACUUGG-GGGUUGCCCUGAUAA'
p127
sS'L.lactis.1'
p128
S'CCAUGUCACACAGUUAAUCCAUCUGUACUUGG-GGGUUGCCCUGAUAU'
p129
sS'P.lividus.1'
p130
S'UCGUCC-UCACAGUCAACAGCAUAGUACUUGGUGGGAGACCCUGACCG'
p131
sS'D.mobilis.1'
p132
S'UCGUUUCACCCAGUUAACCGGCCAGCCGUGAGUCCGAGAGCCUCCGUU'
p133
sS'A.delafieldii.1'
p134
S'CCAUCCCACAGAGUGAACGACUUU-UA---GUCGGGUUCCUGUGAGUA'
p135
sS'P.ostreatus.1'
p136
S'CCGUCU-UCUGAGUUAACAGAGUGGUACCACGUGGGGGACCGCGCCUG'
p137
sS'E.cuniculi.1'
p138
S'UCGUCA-UCUCAGUUAACCCGUGCGUACUGAGAGGGAGACCUCGACCG'
p139
sS'E.nidulans.1'
p140
S'CCGUCC-UCAGACUUAACCACACGGUAGUAUGUGGGUGACCAUGCCCU'
p141
sS'A.vacuolatus.1'
p142
S'UCACUCCACUCCGUUAACUCCUCAGUACUAUGUCU--CAACCUGAGUA'
p143
sS'E.nidulans.3'
p144
S'CCGUCC-UCAGACUUAACCACACGGUAGUAUGUGGGUGACCAUGCCCA'
p145
sS'E.nidulans.2'
p146
S'CCGUCC-UCAGACUUAACCACACGGUAGUAUGUGGGUGACCAUGCCCA'
p147
sS'V.filiformis.1'
p148
S'CCAUCCCACAGAGUGAACGCCUUA-UAGUGC--GGUUCUCCGUGAGUA'
p149
sS'A.bromoides.1'
p150
S'CCAUCA-ACUCAGUUAACGUGCUUGUACUAGGUGGGUGACCGAGACUA'
p151
sS'H.pseudoflava.1'
p152
S'CCAUCCCACAGAGUGAACGACUUU-UAGU----GAGGGUUCGUGAGUA'
p153
sS'M.tuberculosis.1'
p154
S'CCAUUCCACCCAGCUAACCUGCCA-UACUGCC-CCUCCGG----AGUA'
p155
sS'B.quintana.1'
p156
S'CCAUCCCACUCCGUGAACGUUCCAGUACUUUG-CCUCAAGAC--AGUA'
p157
sS'E.longus.1'
p158
S'CCAUCUCACUCCGUGAACCAGUUAGUACUAUGUCU--UAACAUGAGUA'
p159
sS'S.aureus.1'
p160
S'CCAUGCCACACAGUUAACUCCUUAGUAGUCGA-ACUUACGCCG-AGUA'
p161
sS'Ureaplasma_urealytic.1'
p162
S'CCAUCCCACACAGUCAACACUCUA-UA------GCGCAAG----AAUA'
p163
sS'C.biazotea.1'
p164
S'CCAUUCCACCCAGCUAACCCUUCAGUACUGCA-UCGCCAGUGUGAGUA'
p165
sS'P.trichomanes.1'
p166
S'CCAUCA-ACUCAGUUAACGCCUUUGUACUGGGUGGGUGACCCCGUCCC'
p167
sS'A.cryptum.1'
p168
S'CCAUCCCACUCCGUGAAAUCCCCAGUACUGUG-CCUCAAGCACGAGUA'
p169
sS'E.sulcatum.1'
p170
S'CCGUCC-UUUCAGUUAACCUCAUCGUACUAGGUGGGCGACCCUGCGGA'
p171
sS'S.griseus.1'
p172
S'ACAUUCCACCCAGCUAACCUUUCAGUACUGCA-GGGGGACUGUGAGUA'
p173
sS'S.griseus.2'
p174
S'ACAUUCCACCCAGCUAACCUUACAGUACUGCA-GGGGGACUGUGAGUA'
p175
sS'S.roseoverticillatus.1'
p176
S'ACAUUCCACCCAGCUAACCUUUCGGUACUGCAUGGGGGACUGUGAGUA'
p177
sS'M.thermolithotrophic.1'
p178
S'CCGUCCCUCUCAAUUAACCCUCCAGUACUGCCU---UUG--GUGAGGG'
p179
sS'B.amyloliquefaciens.1'
p180
S'CCAUCCCACACCGUGAAACCUCCA-UACUGGG-GGGCAGCCCUGAGUA'
p181
sS'S.salivarius.1'
p182
S'CCAUGCCACACAGUUAACCCUAGUGUAGUUGG-GGGUUGCCCUGAUAC'
p183
sS'B.alba.1'
p184
S'CCAUCCCACUCAGUGAACUGUUCU-UAGUGUG-GAUACUCCAUGAGUA'
p185
sS'S.purpureus.1'
p186
S'ACAUUCCACCCAGCUAACCUUUCAGUACUGCA-GGGGGACUGUGAGUA'
p187
sS'C.crispata.1'
p188
S'CCAUCUCACUGAGUUAAUCUCCUCGUACUGAGUCAGGGAUCUCGCGCG'
p189
sS'C.reinhardtii.1'
p190
S'CCAUUA-ACUGAGAUAAUAUGAAUGUAGUACGUGGGGGACCGUGCCUC'
p191
sS'C.reinhardtii.2'
p192
S'CCAUCA-ACUGAGAUAACCUGAAUGUAGUACGUGGGGGACCGUGCCUC'
p193
sS'C.zawadskii.1'
p194
S'CCAUCA-ACUCAGUUAACGUGCUCGUACUGGCUGGGUGAC----AUUU'
p195
sS'V.cincinnatiensis.1'
p196
S'CCAUGCCACUCAGUGAACGAAACAGUAGUGUG-GGGUCUCCAUGAGUA'
p197
sS'S.inulinus.1'
p198
S'CCAUCCCACACCGUUAACUCUUCUGUAAUUGG-GGCUGUCCCUGAGUA'
p199
sS'B.mori.1'
p200
S'UCGUCC-UCACAGUCAACAACAUCGUACUUGGUGGGUGACCCUGACCA'
p201
sS'G.hirsutum.1'
p202
S'CCAUCA-ACUCAGUUAACGUGCUUGUACUAGGUGGGUGACCCUGUCCU'
p203
sS'E.chaffeensis.1'
p204
S'ACAUUUCACCUAGUUAACCUUCUAGUACUUUGUCU--UAACAUGAGUA'
p205
sS'P.chesapeaki.1'
p206
S'CCAUCC-ACUCAGUUAACGGUGCAGUACUGGGUGGGGGACCCCGUCCU'
p207
sS'A.denitrificans.1'
p208
S'CCAUCCCACAGAGUGAACGACUUU-UA--GUG-ACGGACGUGUGAGUA'
p209
sS'E.vaccinii.1'
p210
S'CCGUCC-UCUGAGUCAACACGGUAGUACUGCGUGGGGGACCGCGCCUG'
p211
sS'M.formosensis.1'
p212
S'CCGUUC-UCUGAGAUAACUCCUGAGUACUAUGUGGGGGACCAUGACCC'
p213
sS'A.thaliana.1'
p214
S'CCRWUYCACUCAGUUAACGUGCUUGUACUAGGUGGGUGACCCCGUCCU'
p215
sS'M.glyptostroboides.1'
p216
S'CCAUCA-ACUCAGUUAACGCGCUUGUACUGGGUGGGUGACCCCGUCCC'
p217
sS'A.thaliana.3'
p218
S'CCAUCA-ACUCAGUUAACGUGCUUGUACUAGGUGGGUGACCCCGUCCU'
p219
sS'A.thaliana.2'
p220
S'CCAUCA-ACUCAGUUAANGUGCUUGUAAUAGGUGGGUGACCCCGCCUN'
p221
sS'N.exedens.1'
p222
S'CCAUCCCACUCCGUUAAACUUCCAGUACUGCA-GGGCGACUGUGAGUA'
p223
sS'V.spinosum.1'
p224
S'CCAUACCACACAGUGAACUUCUCAGUAGUUCG-GGCUGCCCCCGAGUA'
p225
sS'T.gondii.1'
p226
S'CCUUCA-CCUCAGUUAACGGCGCAGUACUUGGUGGGGGACCCAGACCC'
p227
sS'L.plantarum.1'
p228
S'CCAUGUCACACAGUUAACUUCUUAGUAGUUGG-GGAUCGCCCUGGGUA'
p229
sS'X.borealis.1'
p230
S'UUGUCU-UCUCAGCCAUCGGGGCCGUACCUGGUGGGAGACCCUGUACA'
p231
sS'U.unicinctus.1'
p232
S'UCGUCC-UCACAGUUAACAACGUCGUACUUGGUGGGUGACCCUGACCG'
p233
sS'D.radiodurans.1'
p234
S'CCAUGCCACUGCGUGAACGUGGCA-UACUUGG-CCGCAGGCCUGAGUC'
p235
sS'S.cinereus.1'
p236
S'ACAUUCCACCCAGCUAACCUCACAGUACUGCA-GGGGGACUGUGAGUA'
p237
sS'M.violaceum.1'
p238
S'UCGUCC-UCCGAGACAACAUCGCAGUAUUGACUGGGUGACGUCGACUG'
p239
sS'H.comosum.1'
p240
S'CCAUCA-ACUCAAUUAACGUGCUUGUACUAG--GAUUGAUCAUCCUC-'
p241
sS'M.marina.1'
p242
S'CCAUUCCACUCAGUGAACGUAAUAGUAGUGUG-GGGUUUCCAUGAGUA'
p243
sS'R.fascians.1'
p244
S'CCAUUCCACCCAGCUAACCCUCCAGUACUGCA-UCGACAGUGUGAGUA'
p245
sS'R.prowazekii.1'
p246
S'CCAUCCCACUCCGUGAACCUCAUAGUACUAUG-UCAUAAGCAUGAGUA'
p247
sS'T.roseum.1'
p248
S'CCAUCCCACCGCGUGCCCACACCAGUACUGCG-GGGCAACCGUGGCGA'
p249
sS'A.magnoliae.1'
p250
S'UCGUCC-UCACAGUUAACAACGUCGUACUUGGUGGGUGACCUUGACUA'
p251
sS'V.cholerae.1'
p252
S'CCAUUCCACUCAGUGAACGAAAUAGUAGUGUG-GGGUUUCCAUGAGUA'
p253
sS'T.hiemalis.1'
p254
S'CCGUCU-UCUGAGUUAACACUGUAGUAGUGCGUGGGGGACCGCGACUC'
p255
sS'P.polycephalum.1'
p256
S'CCGUCC-UCUGAGUUAACUCCUUCGUACUGGGUGGGGGACCCUGCCCA'
p257
sS'S.ureae.1'
p258
S'CCAUACCACACAGUUAACUCUUCAGUAGUUGG-GGGUUUCCCUGAGUA'
p259
sS'B.methanolicus.8'
p260
S'CCAUACCACACGGUUAACUUCUCAGUAGUUGG-GC-AUUGCCUGAGUA'
p261
sS'M.agile.1'
p262
S'CCAUCCCACUCAGUGAACCGCUUA-UAGUGCG-CAGGU-UCGUGAGUA'
p263
sS'G.stearothermophilus.1'
p264
S'CCAUCCCACACAGUUAACCCUCCAGUAGUUGG-GCCAGCGCCUGAGUA'
p265
sS'B.methanolicus.4'
p266
S'CCAUACCACACGGUUAACUUCUCAGUAGUUGG-GC-AUUGCCUGAGUA'
p267
sS'B.methanolicus.5'
p268
S'CCAUGCCACACAGUUAACUUCUCAGUAGUUGG-GC-AUUGCCUGAGUA'
p269
sS'B.methanolicus.6'
p270
S'CCAUACCACACAGUUAACUUCUCAGUAGUUGG-GC-AUUGCCUGAGUA'
p271
sS'B.methanolicus.7'
p272
S'CCAUACCACACAGUUAACUUCUCAGUAGUUGG-GC-AUUGCCUGAGUA'
p273
sS'B.methanolicus.1'
p274
S'CCAUGCCACACAGUUAACUUCUCAGUAGUUGG-GC-AUUGCCUGAGUA'
p275
sS'B.methanolicus.2'
p276
S'CCAUGCCACACGGUUAACUUCUCAGUAGUUGG-GC-AUUGCCUGAGUA'
p277
sS'B.methanolicus.3'
p278
S'CCAUCCCACACCGAGAACUCUUCAGUAGUUGG-GGGUCUCCCUGAGCA'
p279
sS'S.salmonicolor.1'
p280
S'UCGUCC-UCCGAGAUAACAUCGCAGUAUUGACUGGGUGACGUCGACUG'
p281
sS'A.crinita.1'
p282
S'CCGUCC-UCUGAGUUAACGACGUCGUACUACGUGGGGGACCGUGCCCU'
p283
sS'C.spinosum.1'
p284
S'CCAUUCCACUCCGUUAAUCCCCCUGUACUUCGUCU--CAACGCGAGUA'
p285
sS'F.depauperata.1'
p286
S'CCGUCC-UCCGAGUCAAUUGCAUAGUACCAAGUGGGGGACCUUGUCCC'
p287
sS'A.orientalis.1'
p288
S'CCAUUCCACCCAGCUAACCUGACAGUACUGCA-CCGAAGGUGUGAGUA'
p289
sS'N.asteroides.1'
p290
S'CCAUUCCACCCAGCUAAGCCACCUGUACUGCA-UCGACAGUGUGAGUA'
p291
sS'S.grandis.1'
p292
S'CCAUUCCACCCAGCUAACCUGCUAGUACUGCA-CCGGGAGUGUGAGUA'
p293
sS'E.octocarinatus.1'
p294
S'CCAUCC-ACUCAGUUAACGGUUUAGUACUGAGUGGGGGACCUCGUUCA'
p295
sS'D.papillatum.1'
p296
S'CCGCCU-UUUGAGUUAACACCAGCGUACUGCGUGAGUGAUCGUGCCCC'
p297
sS'Vibrio.1'
p298
S'CCAUCUCACUCAGUGAACGCAAUCGUAGUGUG-GGGUCUCCAUGAGUA'
p299
sS'M.formicicum.1'
p300
S'UCGUUUCUCCCAGUGAAUCCUCCUGUACUGUG-ACGAGAGUAUGUCAU'
p301
sS'C.moniligera.1'
p302
S'CCAUCA-ACUCAAAUAACUCGUUUGUAACAGGUUAGUAAUCCUGCUGG'
p303
sS'S.melliferum.1'
p304
S'CCAUCCCACACAGUUAACACUAUU-UAG-----CCGCAAG----AAUA'
p305
sS'P.umbilicalis.1'
p306
S'CCAUCCCAUUUAGCUAACUCCGCCGUACUCUGAGGGGGACCAGUCUCG'
p307
sS'M.parvus.1'
p308
S'CCAUCCCACUCAGUGAACCGCUUA-UAGUGUGCCGUU--UCAUGAGUA'
p309
sS'M.capsulatus.2'
p310
S'CCAUCCCACUCAGUGAACCGCUUA-UAGUGUG-CA-AUUUCAUGAGUA'
p311
sS'C.burnetii.1'
p312
S'CCAUUCCACUCAGUGAAACGCUUA-UAGU---UGGGUCUCCAUGAGUA'
p313
sS'M.capsulatus.1'
p314
S'CCAUCCCCCUCAGUGAACCGCUUAGUGCAAGAU------AUGUGAGUA'
p315
sS'S.hirsuta.1'
p316
S'CCAUUCCACCCAGCUAACUCCCCAGUACUGCA-UCGACAGUGUGAGUA'
p317
sS'P.faginea.1'
p318
S'CCGUCU-UCUGAGUCAACAGCUUAGUAGUGCGUGGGGGACUGCGAUUG'
p319
sS'H.japonica.1'
p320
S'CCAUCCUACACAGAUAACCCGCCAGUACUGGAUGCGCGAGUCUGUCCG'
p321
sS'C.finmarchicus.1'
p322
S'UCGUCC-UCACAGUUAACAACAUUGUACUUGGUGGGUGACCUUGACAC'
p323
sS'C.carnis.1'
p324
S'CCAUUCCACAGAGUUAACUCUACAGUACUGCA-GGGUGACUGUGAGUA'
p325
sS'Escherichia_coli_O15.1'
p326
S'CCAUGCCACUCAGUGAACGCCGUAGUAGUGUG-GGGUCUCCAUGAGUA'
p327
sS'S.azurea.1'
p328
S'CCAUUCCACCCAGCUAACCCACCAGUACUGCA-UCGAAGGUGUGAGUA'
p329
sS'H.euclaston.1'
p330
S'CCAUCA-ACUCAGUUAAUGUGCUUGUACU---------A-----CAUG'
p331
sS'I.pallida.1'
p332
S'CCAUUCCACACCGUCAACCCG-CC-UAGU----GCGUCAG----AGUC'
p333
sS'D.aurantiacum.1'
p334
S'CCAUUCCACCCAGCUAACCCUCCAGUACUGCA-CCGAGAGUGUGAGUA'
p335
sS'W.viridescens.2'
p336
S'CCAUACCACACAGUUAACUCAAUAGUAGUUGG-GGAUCUCCCUGGAUA'
p337
sS'M.organophilum.1'
p338
S'CCAUCUCACUCCGUUAACACACCAGUACUGUG-CU-CCAACACGAGUC'
p339
sS'C.pasteurianum.1'
p340
S'CCAUUCCACAGGGUUAACUCUAAUGUACUGCA-GGGAAGCUGU-AGUA'
p341
sS'L.minor.1'
p342
S'CCAUCA-ACUCAGUUAACGUGCUUGUACUAGGUGGGUGACCCUGUCCU'
p343
sS'T.conorhini.1'
p344
S'CCGUCC-UUUGAGUUAACGGUCACGUACGGCGWCAGUGAUCGUUCCGG'
p345
sS'T.mesenterica.1'
p346
S'CCGUCC-UCUGAGUCAACCGAGUAGUACCACGUGGGGGACCGUGCCUG'
p347
sS'R.capsulatus.2'
p348
S'CCUUCCCACUCCGAUAAGGCCGUCGUACUGCGUCU--CAACGUGAGUA'
p349
sS'R.capsulatus.1'
p350
S'CCAUCCCACUCCGUUAAGGCCAACGUACUGCGUCU--CAACGUGAGUA'
p351
sS'B.helvolum.1'
p352
S'CCAUUCCACCCAGCUAAACCCACAGUACUGCA-CCGGGAGUGUGAGUA'
p353
sS'H.flexuosum.1'
p354
S'CCAUCA-ACUCAGUUAACGUGCUUGUACUAGGUGGGUGACCCUGUCCU'
p355
sS'H.aegyptius.1'
p356
S'CCAUACCACUCAGUGAACGCUGUAGUAGUGUG-GGGUUUCCAUGAGUA'
p357
sS'P.yezoensis.1'
p358
S'CCAUUCCAUUCAGUCAACGUCCGCGUAAUCUGUGAAAGAUCAGGCCCC'
p359
sS'C.fuscus.2'
p360
S'CCAUUCCACAGAGUUAACCCACCAGUACUGCGU-----AACGUGAGUA'
p361
sS'C.fuscus.1'
p362
S'CCAUCCCACACAGUUAACCCUCCAGUACUCCG-GGGAAACCGCGAGUA'
p363
sS'F.johnsoniae.1'
p364
S'CCAUGCCACACAGUUAAUUCUCUAGUAGUGUG-AC-UUUGCCUGAGUA'
p365
sS'S.gregorii.1'
p366
S'CCAUUCCACCCAGCUAACCCUCCAGUACUGCA-UCGAUAGUGUGAGUA'
p367
sS'G.obscuriglobus.1'
p368
S'CCAUUCCACACCGUGAA-GUUUGAGUA-----GUGCGUCCCGCGAGUA'
p369
sS'S.hanedai.1'
p370
S'CCAUCCCACUCAGUGAACGCAAUCGUAGUGUG-GGGUCUCCAUGAGUA'
p371
sS'H.halophila.1'
p372
S'CGAUGCCACUCAGUGAACCGCUCAGUAGUGCGCCA-CGCUCGUGAGUA'
p373
sS'X.Silurana.1'
p374
S'UCGUCU-UCUCAGCUAACAGGGACGUACUUGGUGGGAGACCCUGACCU'
p375
sS'C.terrigena.2'
p376
S'CCAUCCCACAGAGUGAACGAAUUU-UA---GUCGGGUUCCUGUGAGUA'
p377
sS'C.terrigena.1'
p378
S'CCAUCCCACAGAGUGAACGAAUUU-UA---GUCGGGUUCCUGUGAGUA'
p379
sS'R.erythropolis.1'
p380
S'CCAUUCCACCCAGCUAACCCUUCAGUACUGCA-UCGACAGUGUGAGUA'
p381
sS'K.microsticta.1'
p382
S'CCGUCC-UCUGACAUAACAGUUGAGUACCACGUGGGUGACCCUGCCCU'
p383
sS'H.stenostachys.1'
p384
S'CCAUCA-ACUCAGUUAACGUGCUUGUGCUAGGUAGGUGACCCUGUCCU'
p385
sS'H.terrestre.1'
p386
S'CCAUUCCACACAGUUAACCUACCAGUACUGGAUGAGCGAUUCUGCCAC'
p387
sS'V.nereis.1'
p388
S'CCAUGCCACUCAGUGAACGAAGUAGUAGUGUG-GGGUUUCCAUGAGUA'
p389
sS'H.terrestre.2'
p390
S'CCAUUCCACACAGUUAACCCACCAGUACUGGAUGAGCGAUUCUGCCAC'
p391
sS'R.solanacearum.1'
p392
S'CCAUCCCACAGCGUGAACGACUCC-UA---GUCGGAUUCCUGUGAGUA'
p393
sS'E.rhusiopathiae.1'
p394
S'CCAUCUCACACAGUUAACACUUUA-UAUCUAGCAC----GCUAGGAUA'
p395
sS'P.versutus.1'
p396
S'CCAUCCCACUCCGUUAAUGCCGUCGUACUGCG-UCAAAAGCGUGAGUA'
p397
sS'R.cyanoxantha.1'
p398
S'CCGUUC-UCUGAGUUAACAGAGUGGUACCACGUGGGGGACCGCGCCUG'
p399
sS'T.mutans.1'
p400
S'CCACUCCACUCCGUUAACUCCUCAGUACUAUGUCU--CAACCUGAGUA'
p401
sS'S.japonica.1'
p402
S'UCGUCC-UCACAGUUAACAGCAUCGUACUUGGUGGGUGACCCUGACCG'
p403
sS'A.luteus.1'
p404
S'CCAUACCACCCAGCUAACCCUUCAGUACUGCC-UGAAGACGGUGAGUA'
p405
sS'I.illecebrosus.1'
p406
S'UCGUCC-UCACAGUUAACAACGUAGUACUUGGUGGGUGACCCUGACUA'
p407
sS'L.xyli.1'
p408
S'ACAUUCCACCCAGCUAAACUCUCUGUACUGCA-GGGGGACUGUGAGUA'
p409
sS'S.lividans.1'
p410
S'ACAUUUCACCCAGCUAACCUUACAGUACUGCA-GGGGGACUGUGAGUA'
p411
sS'A.pasteurianus.1'
p412
S'CCAUCCCACUCCGUGAAACCCCCA-UACGUUG-GCUUAAGCACGAGUC'
p413
sS'G.amansii.1'
p414
S'CCAUCCCACUCAGUCAAUCGCUUCGUACUGAGUGAGGGAUCUCGCCCC'
p415
sS'G.amansii.2'
p416
S'CCAUCCCACUGAGCUAAUCUCCAUGUACUGCGUCAGGGAUCGCUUCUG'
p417
sS'P.blakesleeanus.1'
p418
S'CCGUCU-UCUCAGUUAAUCUCUCCGUACUAUGUGGGGGACCAUGACGC'
p419
sS'C.citreum.1'
p420
S'AGAUUCCACCCAGCUAACCUCUCAGUACUGCA-GGGGGACUGUGAGUA'
p421
sS'P.poarum.1'
p422
S'CCGUCC-UCUGAGUUAACAGGGUGGUACCACGUGGGGGACCGCGCCUA'
p423
sS'T.pelophila.1'
p424
S'CCAUCUCACUCAGUGAACGUUCCAGUAGUGUG-GGGUUUCCAUGAGUA'
p425
sS'A.riparia.1'
p426
S'CCAUCCCACCCAGCUAACCCACCAGUACUGCA-UCGUGAGUGUGAGUA'
p427
sS'N.magadii.1'
p428
S'CCAUCCCACACAGAUAACCUGCCUGUACUGGAUGGGAGACUCUGAGCC'
p429
sS'H.murinum.1'
p430
S'CCAUCA-ACUCAGUUAACGUGCUUGUACUAGG-GA----UCAUCCUC-'
p431
sS'H.murinum.2'
p432
S'CCAUCA-ACUCAGUUAACGUGCUUGUACUAGGUGGGUGACCCAUACCA'
p433
sS'C.cinerea.1'
p434
S'CCGUCC-UCUGAGUUAACAGAGUGGUACCACGUGGGGGACCGCGCCUG'
p435
sS'C.revoluta.1'
p436
S'CCAUCA-ACUCAGUUAACGCGCUUGUACUAGGUGGGUGACCCUGUCCU'
p437
sS'P.stutzeri.1'
p438
S'CCAUCCCACUCCGUUAACUCCUCAGUACUAUGUCU--UAACCUGAGUA'
p439
sS'Frankia.1'
p440
S'UCAUUCCACCCAGCUAACUCUUCAGUACUGCAUGGGGGACUGUGAGUA'
p441
sS'H.aurantiacus.1'
p442
S'CCAUCCCACACAGUUAACCCUCCAGUACUCCG-GGGGAACCGCGAGUA'
p443
sS'E.arvense.1'
p444
S'CCAUCA-ACUCAGUUAACGCGCUUGUACUGGGUGGGUGACCCCGUCCU'
p445
sS'G.hollisae.1'
p446
S'CCAUGCCACUCAGUGAACAGAGCAGUAGUGUG-GGGUCUCCAUGAGUA'
p447
sS'B.adusta.1'
p448
S'CCGUCC-UCUGAGUUAACAGAGUGGUACCACGUGGGGGACCGCGCCUA'
p449
sS'A.methanolica.1'
p450
S'CCAUUCCACCCAGCUAACCUGCCAGUACUGCA-CCCCGCGUGUGAGUA'
p451
sS'M.fervidus.1'
p452
S'CCGUUCCUCUCAGUUAACCCCCCUGUACUGCA-ACGUUAGGCGGCCUC'
p453
sS'A.methanolica.2'
p454
S'CCAUCCCACUCCGUCAAUGCCCCA-UACUCUG-CCUCAAGAC--AGUC'
p455
sS'P.brevicirris.1'
p456
S'UCGUCU-UCACAGUUAACAACGUCGUACUUGGUGGGUGACCCUGACCA'
p457
sS'W.viridescens.1'
p458
S'CCAUACCACACAGUUAACUCAAUAGUAGUUGG-GGAUCUCCCUGGAUA'
p459
sS'P.aestuarii.1'
p460
S'CCAUUUCACAGCGUUAACCCUGGUGUACU----GCGUUAG----AGUA'
p461
sS'H.euclaston.3'
p462
S'CCAUCA-ACUCAGUUAACGUGCUUGUACUAGG-ACAUGCGCGUGAAUA'
p463
sS'H.euclaston.2'
p464
S'CCAUCA-ACUCAGUUAACGUGCUUGUACUAGGUGGGUGACCCUGUCCU'
p465
sS'A.phagocytophilum.1'
p466
S'ACAUUCCACCCAGUUAACCUCCUAGUACUUUGUCU--UAACAUGAGAG'
p467
sS'A.domesticus.1'
p468
S'UCGUCC-UCACAGUUAACAGCGUCGUACUUGGUGGGUGACCCUGCCCG'
p469
sS'S.novella.1'
p470
S'CCAUCCCACUCCGUUAACUCCUCAGUACUAUGUCU--UAACCUGAGUA'
p471
sS'E.hydrolyticum.1'
p472
S'CCAUCUCACUCCGUGAACCAGACAGUAUCAAC-GCUCAAGGUUGAGUA'
p473
sS'N.africana.1'
p474
S'CCGUCC-UCUCCGAUAACCAGUGAGUAGUCGGUCGGUGACCCGGACCU'
p475
sS'A.barbata.1'
p476
S'CCAUCA-ACUCAGUUAACGUGCUUGUACUAGGU----------GACCU'
p477
sS'V.parahaemolyticus.1'
p478
S'CCAUUCCACUCAGUGAACGAAAUAGUAGUGUG-GGGUUUCCAUGAGUA'
p479
sS'D.japonica.1'
p480
S'UCGUUC-UCUCAGUUAACAACCUUGUACUUGAUGCGUGAGUCUGACGA'
p481
sS'T.intermedia.1'
p482
S'CCAUCCCACAGCGUGAACAGUUCA-UA---GUCGCAUUCGUGUGAGUA'
p483
sS'C.bacillisporus.1'
p484
S'CCGUCC-UCCAAGUUAACUGAAGAGUACCACGUGGGGGACCGUGUCCC'
p485
sS'S.colwelliana.1'
p486
S'CCAUCCCACUCAGUGAACGCAAUUGUAGUGUG-GGGUCUCCAUGAGUA'
p487
sS'S.officinalis.1'
p488
S'UCGUCC-ACACAGUUAACAACGUAGUACUUGGUGGGUGACCUUGACCA'
p489
sS'Synechococcus_elonga.1'
p490
S'CCAUCCCACUCUGUGAACAUACCU-UAGCUCC-GGGUAGCGUCGAAUA'
p491
sS'P.waltl.1'
p492
S'UCGUCC-UCUCAGCUAACAGGGUCGUACUUGGUGGGAGACCCUGACCA'
p493
sS'A.chrysogenum.1'
p494
S'CCGUCC-UCUCAGUCAACCGCUAAGUAGUUGGUCGGUGACCCAGACCG'
p495
sS'E.kokanica.1'
p496
S'CCAUCA-ACUCAGUUAACGCGCUUGUACUGGGUGGGUGACCCCGUCCU'
p497
sS'Tolypothrix.1'
p498
S'CCAUCCCACUCGGUGAACGCUGCU-UAGUCUA-GGGUUGCUACGAAUA'
p499
sS'B.ectocarpum.1'
p500
S'CCAUCUCACUCAGCUAAUCCCGUCGUACUCCGAGGGGGACCGGUCGCG'
p501
sS'S.grevilleana.1'
p502
S'CCAUCC-ACUCAGCUAAUCCCCGUGUACUGGCAGGGUGACGCCGUCCG'
p503
sS'D.melanogaster.1'
p504
S'UCGUCC-UCACAAUUAACAGCGUCGUACUUAGUGGGGGACCUUGCACC'
p505
sS'C.carpio.1'
p506
S'UCGUCU-UCUCAGCUAACAGGGUCGUACUUGGUGGGAGACCCUGACCA'
p507
sS'P.simplex.1'
p508
S'CCAUGCCACCCAGUUAACCUGCCAGUACUGCA-CCGAGAGUGUGAGUA'
p509
sS'Bacillus.1'
p510
S'CCAUGCCACACAGUUAACUCUUCAGUAGUCGG-GGGUUUCCCUGAGUA'
p511
sS'C.necator.1'
p512
S'CCAUCCCACAGCGUGAACAGCUCC-UA---GUCGGAUUCCUGUGAGUA'
p513
sS'S.carestianum.1'
p514
S'CCGUCC-UCUGAGUUAACACUGUAGUAGUGCGUGGGGGACCGCGACUC'
p515
sS'S.humosa.1'
p516
S'CCAUCCCACUCCGUGAAACCCUCAGUACUGCG-UCUUAAGGC--AGUA'
p517
sS'S.cynthia.1'
p518
S'UCGUCC-UCACAGUCAACAACAUCGUACUUGGUGGGUGACCCUGACUA'
p519
sS'S.cynthia.2'
p520
S'UCGUCC-UCACAGUUAACAACGUCGUACUUGGUGGGUGACCCUGACCG'
p521
sS'M.tindarius.2'
p522
S'CCAUCCCACACAGAUAACCCGCCUGUACUAAAUAUGAGAGUUUGUAUG'
p523
sS'A.tumefaciens.1'
p524
S'CCUUUCCACACCGUGAACGCCCCAGUACUUCGUCU--CAACGCGAGUA'
p525
sS'E.brevis.1'
p526
S'CCAUUCCACCCAGCUAACCUGCCAGUACUGCA-UCGUGAGUGUGAGUA'
p527
sS'V.stercoraria.1'
p528
S'CCAUCCCACAGCGUGAACGACUUA-UAGU---UGGAUUACCAUGAGUA'
p529
sS'Z.mobilis.1'
p530
S'CCAUUUCACUCCGUGAACCUGUCCGUACUGUU-GCUUAAGAC--AGUA'
p531
sS'T.acidophilum.1'
p532
S'CCAUUCCACUCGGUUAACCUGCUGGUACUGUAGCCGCGAGUACGCGCA'
p533
sS'C.scutata.1'
p534
S'CCAUCA-ACUGAGCUAACGGCAUUGUACUGGGUGGGUGACCCCGUCCU'
p535
sS'Chlamydomonas.1'
p536
S'CCGUCA-UCUAAGUUAACGUGCUCGUAGUACGUGGGUGACCGUGCCCU'
p537
sS'P.fluorescens.2'
p538
S'CCAUCCCACUCAGUGAACGAUGCAGUAGUGUG-GGGUUUCCAUGAGUA'
p539
sS'P.fluorescens.1'
p540
S'CCAUCCCACUCAGUGAACGAUGCAGUAGUGUG-GGGUUUCCAUGAGUA'
p541
sS'C.pallida.1'
p542
S'CCGUCC-UCUGAGUUAACAGAGUGGUACCACGUGGGGGACCGCGCCUA'
p543
sS'A.sturio.1'
p544
S'-------UCUCAGUGAACAAUGUUGUACUUGGUGGGAAACCCUGAUCA'
p545
sS'A.sturio.2'
p546
S'UCGUCU-UCUCAGUGAACAAUGUUGUACUUGGUGGGAGACCCUGAUCA'
p547
sS'C.magnoliae.1'
p548
S'CCGUCC-UCAGAUUUAACACCUGAGUAUUGUAUGGGAGACUACGAGAA'
p549
sS'S.cyanea.1'
p550
S'CCAUUCCACCCAGCUAACCCACCAGUACUGCA-CCGAAGGUGUGAGUA'
p551
sS'D.vulgaris.1'
p552
S'CCAUUCCACUCAGUUAACCCUCCA-UACUGCGGGU---AGCGUGAGUA'
p553
sS'Methylobacterium.1'
p554
S'CCAUCUCACUCCGUUAACACACCAGUACUGUGUCU--CAACACGAGUC'
p555
sS'Acetobacter.2'
p556
S'CCAUGCCACUCCGUCAAUGCCCCA-UACUCUG-CCUCAAGAC--AGUC'
p557
sS'Acetobacter.3'
p558
S'CCAUCCCACUCCGUCAAUGCCCCA-UACUCUG-CCUCAAGAC--AGUC'
p559
sS'C.stellatus.1'
p560
S'CCGUCC-UCUUAGUUAACUGGUGAGUACUGUGUGGGGGACCACGACGG'
p561
sS'Acetobacter.1'
p562
S'CCAUCCCACUCCGUCAAUGCCCCA-UACUCUG-CCUCAAGAC--AGUC'
p563
sS'Acetobacter.4'
p564
S'CCAUCCCACUCCGUCAAUGCCUCA-UACUCUG-CCUCAAGAC--AGUC'
p565
sS'G.stearothermophilus.2'
p566
S'CCAUCCCACACAGUUAACUCUCCAGUAGUUGG-GCCAGCGCCUGAGUA'
p567
sS'S.nodosus.1'
p568
S'ACAUUCCACCCAGCUAACCUCAUAGUACUGCA-GGGGGACUGUGAGUA'
p569
sS'S.nodosus.3'
p570
S'ACAUUCCACCCAGCUAACCUCAGAGUACUGCA-GGGGGACUGUGAGUA'
p571
sS'S.nodosus.2'
p572
S'ACAUUCCACCCAGCUAACCUCAGAGUACUGCA-GGGGGACUGUGAGUA'
p573
sS'P.jadinii.1'
p574
S'CCGUCC-UCAAAGUUAACUGCUAAGUAGUGUAUGGGUGACUACGCUCA'
p575
sS'S.nodosus.4'
p576
S'ACAUUCCACCCAGCUAACCUCAUAGUACUGCA-GGGGGACUGUGAGUA'
p577
sS'M.tindarius.1'
p578
S'CCAUCCCACACAGAUAACCCGCCUGUACUAAAUAUGAGAGUUUGUAUG'
p579
sS'S.cerevisiae.1'
p580
S'CCGUCC-UCAAAGUUAACUGGUAAGUAGUGUA-GUGGGUAGA--GUCU'
p581
sS'T.deformans.1'
p582
S'CCGUCC-UCAGAGUCAACAUGGAAGUACUAUCUGGGAGACGAUGUCCG'
p583
sS'C.phaeobacteroides.1'
p584
S'CCAUUCCACAGCGUUAACCCUGGAGUACUGCUC-----A-UGCGAGUA'
p585
sS'B.subtilis.3'
p586
S'CCAUACCACACAGUUAACUCUUCAGUGAGUGG-GGGCUUCCCUGAGUA'
p587
sS'B.subtilis.2'
p588
S'CCAUGCCACACAGUUAACUCUUCAGUAGUCGG-GGGUUUCCCUGAGUA'
p589
sS'B.subtilis.1'
p590
S'CCAUACCACACAGUUAACUCUUCAGUAGUCGG-GGGUUUCCCUGAGUA'
p591
sS'S.epidermidis.1'
p592
S'CCAUGCCACACAGUUAACUCCUUAGUAGUCGG-ACUUACGCCG-AGUA'
p593
sS'Auricularia_auricula.1'
p594
S'CCGUCC-UCUGAGUUAACAGAGUAGUACCACGUGGGGGACCGCGCCUG'
p595
sS'G.riobambae.1'
p596
S'-------UCUCAGCAAACAGGGUCCUACUUGGUGGGAGACCCUGCACC'
p597
sS'B.vorax.1'
p598
S'CCAUUC-ACUCAGUUAACGGCUUAGUACUAAGUGGGGGACCUUGCCCA'
p599
sS'A.aceti.1'
p600
S'CCAUCCCACUCCGUGAAACCCCCA-UACUGCG-GCUUAAGCGUGAGUC'
p601
sS'B.linens.1'
p602
S'CCGUUCCUCCCAGCUAACCCAUUCGUACUGCA-CUUGGUGUGUGAGUA'
p603
sS'A.globiformis.1'
p604
S'CCAUUCCACCCAGCUAAACCCACAGUACUGCA-CCGGGAGUGUGAGUA'
p605
sS'D.acuminosporus.1'
p606
S'CCGUCA-UCUGAGUUAACAAGUUAGUAGUUUGUGGGGGACCAAGACGA'
p607
sS'G.hibernus.1'
p608
S'CCGUCC-UCUUAGUUAACUGGUGAGUACUGUGUGGGGGACCACGACGG'
p609
sS'B.megaterium.1'
p610
S'CCAUACCACACAGUUAACUCUUUAGUAGUUGG-AC-UUUGCCUGAGUA'
p611
sS'E.gracile.1'
p612
S'CCGUCC-UCACAGUCAACAGCAUCGUACUUGGUGGGUGACCCUGACCG'
p613
sS'V.mediterranei.1'
p614
S'CCAUGCCACUCAGUGAACGCAAUAGUAGUGUG-GGGCUUCCAUGAGUA'
p615
sS'T.turgidum.1'
p616
S'CCAUCC-ACUCAGUUAACGUGCUUGUAUUAGAAAG--UACCCUGUCCU'
p617
sS'M.methylutens.1'
p618
S'ACCUUCCACACAGAUAACCUGCCCGUACUGAGUAC-AGAGCUCGAUCU'
p619
sS'A.mediterranei.1'
p620
S'CCAUUCCACCCAGCUAACCUGACAGUACUGCA-CCGAAGGUGUGAGUA'
p621
sS'M.vannielii.1'
p622
S'CCAUCCCUCUCAAUUAACCCUCCAGUACUGCUU---CUA--GUGAGGU'
p623
sS'A.niger.1'
p624
S'CCGUCC-UCAGACUUAACCACACGGUAGUUGGUGGGUGACCCAGUCCC'
p625
sS'M.vannielii.2'
p626
S'CCAUCCCUCUCAAUUAACCCUCCAGUACUGCUU---CUA--GUGAAGU'
p627
sS'C.cohnii.1'
p628
S'UCUUCU-CCUCAGUUAACGGCACAGUACUGGGUGGGGGACCCCGUCCU'
p629
sS'H.secalinum.2'
p630
S'CCAUCA-ACUCAGUUAACGUGCUUGUACUAGGUAGGUGACCCUGUCCU'
p631
sS'H.secalinum.3'
p632
S'CCAUCA-ACUCAGUUAACGUGCUUGUACUAGGUAGGUGCUGGCGAGUA'
p633
sS'T.papilionaceus.1'
p634
S'CCGUCC-UCUGAUCUAACGUCGUAGUACCAAGUGGGGGACCUUGCCCU'
p635
sS'R.rubrum.1'
p636
S'CCAUCCCACUCCGUGAAGAGCCCUGUACUGCGUCU--UAACGUGAGUA'
p637
sS'H.secalinum.4'
p638
S'CCAUCA-ACUCAGUUAACGUGCUUGUACUAGGUAGGUGCUGGCGUACU'
p639
sS'H.secalinum.5'
p640
S'CCAUCA-ACUUAGUUAACGUGCUUGUACUAGGUGGGUGACCUUGUUCU'
p641
sS'P.irregulare.1'
p642
S'CCGUCC-UCUCAGUCAACAUCUAAGUACUGUGUGGGGGACCACGACGU'
p643
sS'P.occultum.1'
p644
S'UCAUGUCACCCAGUUAACCGGCCGGCUGUGGGUCCGCGAGCCC-GCCC'
p645
sS'H.purpureum.1'
p646
S'CCGUUC-UCUGAGUUAAUGCUGUAGUAGUGCGUGGGGGACCGCGACUC'
p647
sS'V.vulnificus.1'
p648
S'CCAUUCCACUCAGUGAACGAAAUAGUAGUGUG-GGGUUUCCAUGAGUA'
p649
sS'T.matsutake.1'
p650
S'CCGUCC-UCUGAGUUAACAGAGUGGUACCACGUGGGGGACCGCGCCUG'
p651
sS'L.japonicum.1'
p652
S'UCGUCC-UCUCAGCUAACAGGGUCGUACUUGGUGGGAGACCCUGACCA'
p653
sS'P.hydrocarbonoxydans.1'
p654
S'CCAUCCCACCCAGCUAACCCUCCAGUACUGCA-CUGUCAGUGUGAGUA'
p655
sS'P.denitrificans.1'
p656
S'CCAUCCCACUCCGUUAAUGCCGUAGUACUGCG-UCAAAAGCGUGAGUA'
p657
sS'L.aquatica.1'
p658
S'AUAUUCCACCCAGCUAAACUCUCUGUACUGCA-GGGGGACUGUGAGUA'
p659
sS'T.lanuginosus.1'
p660
S'CCGUCC-UCAGACUUAACCACACGGUAGUUGGUGGGUGACCCAGCCCA'
p661
sS'D.purpureum.1'
p662
S'UCGUUC-UCUGAGAUAAUUGCAUCGUACUCAAUUGGAGACUUGGAUAA'
p663
sS'E.gracilis.1'
p664
S'CCGUUC-UUUCAGUUAACCUGGUCGUACUGAGUGGGCGACCUUGACUG'
p665
sS'V.harveyi.1'
p666
S'CCAUUCCACUCAGUGAACGAAUUAGUAGUGUG-GGGUUUCCAUGAGUA'
p667
sS'V.harveyi.2'
p668
S'CCAUUCCACUCAGUGAACGAAUUAGUAGUGUG-GGGCUUCCAUGAGUA'
p669
sS'B.brevis.1'
p670
S'CCAUACCACACCGUUAACCCUCCAGUACUUGCUCCGCAGGGCCGAGUA'
p671
sS'V.adaptatus.1'
p672
S'CCAUCUCACUCCGUGAACCGGACUGUACUAGU-CU-UCAAACUGAGUA'
p673
sS'H.foetidus.1'
p674
S'UCGUCC-UCCCAGUUAACUGCGUCGUAGUACGUGCGUGAGCGUGCCUG'
p675
sS'C.tyrobutyricum.1'
p676
S'CCAUCCCACACAGUUAACUUUCCAGUAGUUGG-GGGUCUCCCUGAGUA'
p677
sS'C.tyrobutyricum.2'
p678
S'ACAUCCCACUCAGUUAACUUUCCAGUAGUUGG-GGGUUUCCCUGAGUA'
p679
sS'C.tyrobutyricum.3'
p680
S'ACAUCCCACUCAGUUAACUUUCCAGUAGUUGG-GGGUUUCCCUGAGUA'
p681
sS'P.chrysogenum.1'
p682
S'CCGUCC-UCAGACUUAACCACACGGUAGUUGGUGGGUGACCCAGCCUC'
p683
sS'V.natriegens.1'
p684
S'CCAUGCCACUCAGUGAACGAAAUAGUAGUGUG-GGGUUUCCAUGAGUA'
p685
sS'C.paradoxa.1'
p686
S'CCGUCC-UUACAGCCUACCCGGUCGUACUAGGUGGGGGACCCUGAUCG'
p687
sS'A.castellanii.2'
p688
S'CCAUCC-ACAGAGUUAACUGCGCGGUACUGGGUGGGCGACCCCGCCAC'
p689
sS'A.castellanii.1'
p690
S'CCAUCC-ACAGAGUUAACUGCGCCGUACUGGGUGGGCGACCCCGCCAC'
p691
sS'C.paradoxa.2'
p692
S'-CAUACCACUCUGUGAACAUUACU-UACUUGA-GGGUAACUCUGGAUA'
p693
sS'H.paradoxa.1'
p694
S'CCGUCC-UCUGAGUUAACAGAGUGGUACCACGUGGGGGACCGCGCCUG'
p695
sS'M.barkeri.1'
p696
S'CCAUCCCACACAGAUAACCUGCCCGUACUGAAUGUGCGAGUUCGCUCU'
p697
sS'B.caryophylli.1'
p698
S'CCAUCCCACAGCGUGAACGACUCC-UAGUGCGAUU----GCGUGAGUA'
p699
sS'L.delbrueckii.2'
p700
S'CCAUGCCACACAGUUAACUUCUUAGUAGUUGGUGGGAAACCCUGGAUA'
p701
sS'Thiobacillus.1'
p702
S'CCAUCCCACAGCGUGAACGAGACA-UAGU---UGGAUUACCAUGAGUA'
p703
sS'B.burgdorferi.1'
p704
S'UCAUUCCACACAGUUAACUCUUAUGUACU----GC--GAGCGCGAGUA'
p705
sS'T.chromogena.1'
p706
S'CCAUUCCACCCAGUUAACCCGCCAGUACUGCA-UGGUGACUGUGAGUA'
p707
sS'P.leiognathi.1'
p708
S'CCAUGCCACUCAGUGAACGUAAUAGUAGUGUG-GGGUCUCCAUGAGUA'
p709
sS'M.evestigatum.1'
p710
S'CCAUCCCACACAGAUAACCUGCCAGUACUAAAUGCGAGAGUUUGCUAU'
p711
sS'S.ferax.1'
p712
S'CCGUCC-UCUGAGUUAACAGGCUCGUACUCAGUGGGUGACCUGGUCCA'
p713
sS'H.panicea.1'
p714
S'UCGUCU-UCACAGUUAACAACGUAGUACUUGGUGGGUGACCCUGAGCA'
p715
sS'Streptomyces.1'
p716
S'ACAUACCACCCAGCUAACCUCACAGUACUGCA-GGGGGACUGUGAGUA'
p717
sS'L.interrogans.1'
p718
S'CCAUCCCACACAGUUAACCUCUCAGUACUAUGUGGUUCGCCAUGAGUA'
p719
sS'C.rugopelliculosa.1'
p720
S'CCGUCC-UCAAAGUUAACUGCUAAGUAGUGUAUGGGAGACUACGCUCA'
p721
sS'A.aurita.1'
p722
S'UCGUCC-UCACAGUUAANAUGGUAGUACCUGGUGGGUGACCCUGACCC'
p723
sS'Chlorella.1'
p724
S'CCAUCA-ACUCAGUUAACGUGGUUGUACUGGGUGAGGGAUCCUGCCCG'
p725
sS'X.viscosus.1'
p726
S'CCAUCCCACUCCGUUAACUCCUCAGUACUUCGUCU--CAACGCGAGUA'
p727
sS'M.haemofelis.1'
p728
S'CCAUCCCACUCCGUGAACGCUCCAGUACUUCG-CCUCAAGCACGAGUA'
p729
sS'E.tenella.1'
p730
S'CCAUCU-ACUCAGUUAACGGCGCAGUACUGCGUAGGGGACCGCGUCCU'
p731
sS'S.pennata.1'
p732
S'-CAUCCCACUUGGUGAACUCUACU-UACUGUA-GGGAAGCUACGAAUA'
p733
sS'Thermus.1'
p734
S'CCAUUCCACCCAGUUAACCCUCCA-UACUGUGCGGGCGAACACGAGUA'
p735
sS'S.roseum.1'
p736
S'ACAUUCCACCCAGUUAACUCUUCAGUACUGCA-CGGGGACUGUGAGUA'
p737
sS'Thermus.2'
p738
S'CCAUUCCACCCAGUUAACCCCCCA-UAGCCUCCCC-CGA-GAGGAGUA'
p739
sS'N.flexilis.1'
p740
S'CCAUCC-ACUCAGCCAACGCCGUUGUACUGGGUGGGUGACCCUGUCCC'
p741
sS'P.woesei.1'
p742
S'UCAUUUCACCCAGUUAACCCCCCAGUACUGCCUCCGAGAGGGCGCCGG'
p743
sS'P.thermophila.1'
p744
S'CCAUCCCACCCAGCUAACACUCCAGUACUGCA-UCGCUAGUGUGAGUA'
p745
sS'A.immersus.1'
p746
S'CCGUCC-UCUCAGUCAACUUCUAAGUACUGCGUGGGUGACCACGCCGA'
p747
sS'C.diversa.1'
p748
S'CCGUCC-UCAAAGUUAACCGCUGAGUAGUGUAUGGGAGACUACGCUCA'
p749
sS'D.oxyrinchus.1'
p750
S'CCGUCU-UCUCAGCUAACAGGUCAGUACUUGGUGGGAGACCCUGUACC'
p751
sS'P.damselae.1'
p752
S'CCAUGCCACUCAGUGAACGCAGCAGUAGUGUG-GGGUCUCCAUGAGUA'
p753
sS'S.sibiricus.1'
p754
S'CCAUCUCACUCCGUGAACCAGGUAGUACUGCC-GCUUAAGCC--AGUA'
p755
sS'H.taeniospiralis.1'
p756
S'CCAUCCCACAGAGUGAACGCCUUU-UA---GUCGGGUUCCUGUGAGUA'
p757
sS'H.cretacea.1'
p758
S'ACAUUCCACCCAGUUAACCCUCCAGUACUGCA-CGGGGACUGUGAGUA'
p759
sS'G.gallus.1'
p760
S'UCGUCU-UCUCAGCUAACAGGGUCGUACUUGGUGGGAGACCCUGACCG'
p761
sS'G.oxydans.2'
p762
S'CCAUCCCACUCCGUGAAUCCCUCA-UACCGUA-CCUUAAGGC--AGUC'
p763
sS'G.oxydans.1'
p764
S'CCUUCCCACUCCGUGAAUCCCUCA-UACUGCA-CCUCAAGGC--AGUC'
p765
sS'C.perfringens.1'
p766
S'CCAUUCCACACGGUUAACCUUUAGGUACUGCA-GGGAGACUGUGAGUA'
p767
sS'C.peniophorae.1'
p768
S'CCGUCC-UCCGAGACAACAUCACAGUAUUGACUGGGUGACGUCGACUG'
p769
sS'P.graminea.1'
p770
S'CCGUCC-UCUCAGUUAACAACAUCGUACUAUGUGGGGGACCAUGACUG'
p771
sS'H.brachyantherum.1'
p772
S'CCAUCA-ACUCAGUUAAUGUGCUUGUACUAGG-GG----UUAAGCUUG'
p773
sS'H.brachyantherum.2'
p774
S'-----------AUCCCACGUGCUUGUACUAGGUGGGUGACCCUGUCCU'
p775
sS'A.aquaticus.1'
p776
S'CCAUCCCACUCCGUUAACUCCUCAGUACUAUGUCU--CAACCUGAGUA'
p777
sS'A.aquaticus.2'
p778
S'UCGUCC-UCAGAGUUAACAACGUUGUACUUGGUGGGAGACCCUGACCA'
p779
sS'S.rimosus.1'
p780
S'ACAUUUCACCCAGCUAACCUUUCAGUACUGCA-GGGGGACUGUGAGUA'
p781
sS'C.limicola.1'
p782
S'CCAUUCCACAGCGUUAACCCAGGAGUACUGCUU-----A-UGCGAGUA'
p783
sS'D.wimpennyi.1'
p784
S'CCAUCCCACACGGUUAAACUUAAGGUACUAUG-UGGAGACCAUGAGCA'
p785
sS'L.biflexa.1'
p786
S'CCAUUCCACACAGUCAACUUCUCAGUACUAUU-GGUUCGCAAUGAGUA'
p787
sS'B.firmus.1'
p788
S'CCAUACCACACAGUUAACUUCUCAGUAGUUAG-GGGCUGUCCUGAGUA'
p789
sS'B.cepacia.1'
p790
S'CCAUCCCACAGCGUGAACGACUCU-UA---GUCGGAUUCCUGUGAGUA'
p791
sS'P.gouldii.1'
p792
S'UCGUCC-UCACAGUUAACAACGUCGUACUUGGUGGGUGACCCUGACCU'
p793
sS'D.deliquescens.1'
p794
S'CCGUCC-UCUGAGUUAACAGUGUGGUACCACGUGGGGGACCGCGUCCU'
p795
sS'U.fusisporum.1'
p796
S'CCGUCC-UCUGAGUUAACGGAGUGGUACCACGUGGGGGACCGCGCCUG'
p797
sS'P.kocurii.1'
p798
S'CCAUCCCACACAGUUAACUCUUUUGUAGUUGG-GGGUUUCCCUGAGUA'
p799
sS'C.rugosa.1'
p800
S'CCGUCC-UCAAAGUUAACUACUAAGUAGUGUAUGGGAGACUACGUUCA'
p801
sS'D.radiophilus.1'
p802
S'CCAUGCCACUGCGUGAACGUGGCA-UACUUGG-CCGCAGGCCUGAGUC'
p803
sS'R.toruloides.1'
p804
S'UCGUCC-UCCGAGUUAACAUCGCAGUAUUGCCUGGGUGACGGCGACUG'
p805
sS'A.senescens.1'
p806
S'CCAUCA-ACUCAGUUAACGUGCUUGUACUAGGUGGGUGACCCUGUCCU'
p807
sS'K.flaccidum.1'
p808
S'CCAUCA-CCUCAGCUAAGGCCUGUGUACUGGAUGGGUGACUCCGUCCU'
p809
sS'C.butyricum.1'
p810
S'CCAUUCCACAGAGUUAAGUCUAUAGUACUGCAUGGGAGACUGUGAGUA'
p811
sS'C.butyricum.2'
p812
S'CCAUUCCACAGAGUUAAGUCUAUAGUACUGCAUGGGAGACUGUGAGUA'
p813
sS'E.festucae.1'
p814
S'CCGUCC-UCUCAGAUAACUGGCGAGUAGUUGAUCGGUGACUCAGACCU'
p815
sS'P.palmata.2'
p816
S'-CAUCCCACUCUGUUAACACUACA-UACUGAA-GGGAAGCUUUGAGUA'
p817
sS'P.palmata.1'
p818
S'CCAUCCCAUUUAGCUAACUCCGCCGUACUCUGAGGGGGACCAGUCUCG'
p819
sS'R.palustris.1'
p820
S'CCAUCCCACACCGUUAACUCCUCAGUACUCCGUCU--CAACGCGAGUA'
p821
sS'H.rufipes.1'
p822
S'UCGUCC-UCACAGUCAACAGCGUUGUACCUGGUGGGUGACCUUGACCG'
p823
sS'M.edulis.1'
p824
S'UCGUCC-UCACAGUUAACAACGUCGUACUUGGUGGGUGACCCUGACCG'
p825
sS'Z.hellenicus.1'
p826
S'CCGUCC-UCAGAUUCAACAUCUGAGUACUAUAUGGGUGACUAUGUGAA'
p827
sS'P.reticulata.1'
p828
S'UCGUCC-UCACAGUUAACAGUGUCGUACUUGGUGGGUGACCCUGACUG'
p829
sS'H.volcanii.1'
p830
S'CCAUCCCACACAGUUAACUCACCUGUACUGGAUGAGCGAUUCUGUCCA'
p831
sS'M.luteus.1'
p832
S'CCAUCCCACCCAGCUAACCCCAUAGUACUGCA-CCGGGAGUGUGAGUA'
p833
sS'M.halophilus.1'
p834
S'CCAUCCCACACAGAUAACCCGCCCGUACUAAAUGCGCGAGUUUGUGCG'
p835
sS'M.luteus.2'
p836
S'CCAUGCCACCCAGCUAANCCCACAGUACUGCA-UCGGUAGUGUGAGUA'
p837
sS'T.thermophila.1'
p838
S'CCAUUC-ACUCAGUUAACGCCUUAGUACUAAGUGGGGGACCUUGUCCC'
p839
sS'T.thermophila.2'
p840
S'CCAUUC-ACUCAGUUAACGCCUUAGUACUAAGUGGGGGACCUUGUCCC'
p841
sS'P.halophobica.1'
p842
S'CCAUCCCACCCAGCUAACCCUCCAGUACUGCA-UCGCCAGUGUGAGUA'
p843
sS'L.geniculatus.1'
p844
S'UCGUCC-UCACAGUUAACAACGUCGUACGUGGUGGGUGACCCUCACCA'
p845
sS'L.japonicum.2'
p846
S'UCGUCC-UCUCAGCUAACAGGGUCGUACUUGGUGGGAGACCCUGACCA'
p847
sS'Hemicentrotus.1'
p848
S'UCGUCC-UCACAGUCAACAGCAUAGUACUUGGUGGGAGACCCUGACCG'
p849
sS'uncul.alpha.prote.1'
p850
S'CCAUCUCACUCGGAGAAUCCUUUAGUACUUAGUCU--UAACUUGAGUA'
p851
sS'C.coralloides.1'
p852
S'CCAUCCCACACAGUUAACCCUCCAGUACUCCG-GGGAAACCGUGAGUA'
p853
sS'D.tenue.1'
p854
S'CCGUCU-UCAGAGUCAACAUCGUCGUACUACGUGGGGGACCGUUUCCC'
p855
sS'S.aggregatum.1'
p856
S'UCGUUC-ACUCAGUCAACCGUGUCGUACUACCUAGGGGACGGUGCGUG'
p857
sS'M.arenaria.1'
p858
S'CCGUCC-UCUGAGUUAACAACGCUGUACUUGGACGGAGACCCUGCGGG'
p859
sS'V.mimicus.1'
p860
S'CCAUUCCACUCAGUGAACGAAACAGUAGUGUG-GGGUUUCCAUGAGUA'
p861
sS'A.tauschii.1'
p862
S'CCAUUA-ACUCAGUUAACGUGCUUGUACUAGGUGGGUGACCCUGUCCU'
p863
sS'H.brevisubulatum.1'
p864
S'CCAUCA-ACUCAGUUAACGUGCUUGUACUAGGUGGGUGGGAGAGAGGA'
p865
sS'H.brevisubulatum.2'
p866
S'CCAUCA-ACUCAGUUAACGUGCUUGUACUAGGUGGGUGAC----CUUG'
p867
sS'M.methylotrophus.1'
p868
S'CCAUCUCACAGCGUGAACGAACUU-UAGUGUAUCU----UUAUGAGUA'
p869
sS'A.serpens.1'
p870
S'CCUUCCCACAGCGUGAACGACUCA-UA---GUCAGAUCCCUGUGAGUA'
p871
sS'P.purpurea.1'
p872
S'CCAUCUCACUCUGUUAACGCUGUA-UACUUAA-GGGCAGCUUUGAGUA'
p873
sS'E.shaposhnikovii.1'
p874
S'CCAUCUCACUCAGUGAACGGUUCA-UAGUGUG-GGGCCUCCAUGAGUA'
p875
sS'S.lycopersicum.1'
p876
S'CCAUCA-ACUCAGUUAACGUGCUUGUACUAGGUGGGUGACCCUGUCCU'
p877
sS'A.media.1'
p878
S'CCAUGCCACUCAGUGAACGCGGUAGUAGUGUG-GCAUUUGCAUGAGUA'
p879
sS'T.visurgense.1'
p880
S'UCAUCC-ACUCAGUUAACCACAUAGUACUGCCUAGGGGACGGUGCACG'
p881
sS'B.belcheri.1'
p882
S'UCGUUC-UCUCAGUUAACAACGUCGUACUUGGUGGGAGACCCUGACCG'
p883
sS'H.pubiflorum.2'
p884
S'CCAUCA-ACUCAGUUAACGUGCUUACCUCCUG------------UCCU'
p885
sS'H.pubiflorum.1'
p886
S'CCAUAA-ACUCAGUUAACCUGCUUGUACUAGGUAGGUGACCCUAUCCU'
p887
sS'D.nodosus.1'
p888
S'CCAUGCCACUCAGUGAACGCAGCAGUAGUGUG-AGGUCUCCAUGAGUA'
p889
sS'C.kikuchii.1'
p890
S'CCGUCC-UCUGAUAUAACACGUAAGUACUACGUGGGUGACCGUGCCCC'
p891
sS'H.imberbe.1'
p892
S'CCAUCA-ACUAAGUUAACGUGCUUGUACUAGGUGGGUGACCCUAGUCC'
p893
sS'B.magnus.1'
p894
S'CCGUCC-UCUCAGUCAACUGGUAAGUACUACGUGGGGGACCGUGACUA'
p895
sS'T.celer.1'
p896
S'UCGUUUCCCCCAGUUAACCCGCCAGUACUGCCUCCGGGAGGGCGGCCG'
p897
sS'B.trispora.1'
p898
S'CCGUCC-UCUCAGUUAACGGUAUAGUACUAUGUGGGGGACCAUGACUG'
p899
sS'G.applanatum.1'
p900
S'CCGUCC-UCUGAGUUAACGGAGUGGUACCACGUGGGGGACCGCGCCUG'
p901
sS'X.laevis.4'
p902
S'UCGUCU-UCUCAGCCAACAGGGUCGUACUUGGUGGGAGACCCUGACCA'
p903
sS'V.alginolyticus.1'
p904
S'CCAUGCCACUCAGUGAACGAAAUAGUAGUGUG-GGGUUUCCAUGAGUA'
p905
sS'X.laevis.2'
p906
S'UCGUCU-UCUCAGCGAUCAGGGUCGUACCUGGUGGGAGACCCUGACCA'
p907
sS'X.laevis.3'
p908
S'UCGUCU-UCUCAGCGAUCAGGGCCGUACCUGGUGGGAGACCCUGACCG'
p909
sS'X.laevis.1'
p910
S'UCGUCU-UCUCAGCCAACAGGGUCGUACUUGGUGGGAGACCCUGACCA'
p911
sS'H.patagonicum.5'
p912
S'CCAUCA-ACUCAGUUAACGUGCUUGUACUAGGUGGGUGACCCUGUCCU'
p913
sS'L.pyriforme.1'
p914
S'CCGUCC-UCUGAGUUAACAGAGUGGUACCACGAGGGGGACCGCGUCUU'
p915
sS'S.putrefaciens.1'
p916
S'CCAUCCCACUCAGUGAACGCAAUUGUAGUGUG-GGGUCUCCAUGAGUA'
p917
sS'P.rugosa.1'
p918
S'CCAUUCCACCCAGCUAACCUGCCAGUACUGCA-UCGUAGGUGUGAGUA'
p919
sS'V.beggiatoides.1'
p920
S'CCAUCUCACUCAGUGAACCAGUCA-UAGUGUG-CA--UAUCAUGAGUA'
p921
sS'H.cordobense.1'
p922
S'----AUC---CAGUUAACGUGCUUGUACUAGGUAGGUGAUCCUGUCCU'
p923
sS'H.cordobense.2'
p924
S'-------ACUCAGUUAACAUGUUUGUACUAGGUAGGUGACCCUGUUCU'
p925
sS'H.cordobense.3'
p926
S'CCAUCA-ACUCAGUUAAAGUGCUUGUACUAGGUGGGUGACCCUGUCCU'
p927
sS'Thiomicrospira.1'
p928
S'CCUUUCCACUCAGUGAACGUUUUAGUAGUGUGUCAGU--UCAUGAGUA'
p929
sS'P.aeruginosa.1'
p930
S'CCUUCCCACUCAGUGAACGACACAGUAGUGUG-GGGUCUCCAUGAGUA'
p931
sS'V.proteolyticus.1'
p932
S'CCAUGCCACUCAGUGAACGAAUUAGUAGUGUG-GGGUUUCCAUGAGUA'
p933
sS'O.sativa.1'
p934
S'CCAUCA-ACUCAGUUAACGUGCUUGUACUAGGUGGGUGACCCUGUCCU'
p935
sS'O.sativa.2'
p936
S'CCAUCA-ACUCAGUUAACGUGCUUGUACUAGGUGGGUGACCCUGUCCU'
p937
sS'Rhodococcus.1'
p938
S'CCAUUCCACCCAGCUAACCCUUCAGUACUGCA-UCGACGGUGUGAGUA'
p939
sS'E.faecalis.1'
p940
S'CCAUGCCACACAGUUAACUUCUUAGUAGUGAG-GGGUUGCCUUGAGUA'
p941
sS'I.iguana.1'
p942
S'UCGUCU-UCUCAGCUAACAGGGUCGUACUUGGUGGGAGACCCUGACCG'
p943
sS'P.brasiliensis.1'
p944
S'CCAUUCCACACAGUUAACCCUG-AGUACUGCAG---------UGAGUA'
p945
sS'H.secalinum.1'
p946
S'------C----AGUUAACGUGCUUGUACUAGGUGGGUGACCUUGGUCC'
p947
sS'H.patagonicum.9'
p948
S'CCAUCA-AAUCAGUUAACGUGCAUCUACUAGGUGCGUGA-UGUCAUCA'
p949
sS'H.patagonicum.8'
p950
S'CCAUCA-ACUCAGUUAACGUGCUUGUACUAGGUGGGUGACCCUGACCU'
p951
sS'T.vulgaris.1'
p952
S'CCAUCCCACACAGUUAACCCUCCAGUACUUGG-GGAUGACCCUGAGUA'
p953
sS'F.pseudograminearum.2'
p954
S'CCGUCC-UCCCCGUCAACUGCGAAGUAGUUGGUCGGUGACCCAGCCCC'
p955
sS'F.pseudograminearum.1'
p956
S'CCGUCC-UCUCCGAUAACUGAUAAGUAGUUAGUCAGUAACCCAGCCUC'
p957
sS'H.patagonicum.6'
p958
S'CCAUCA-ACUCAGUUAACGUGCUUGUACUAGGUGGGUGACCCUGGUCC'
p959
sS'H.patagonicum.1'
p960
S'-------ACUCAGUUAACGUGCUUGUACUAGGUGGGUGACCCUGUCCU'
p961
sS'H.patagonicum.3'
p962
S'CCAUCA-ACUCAGUUAACGUGCUUGUACUAG--GAUUGAU----UUUU'
p963
sS'S.mutabilis.1'
p964
S'CCAUUCCACCCAGCUAAUCCUCCAGUACUGCAUGCGUGAGUGUGAGUA'
p965
sS'E.calabaricus.4'
p966
S'UCGUCC-UCCUAAAUAACAUGCUUGUACUUGGUGGGUGACCCUGACCG'
p967
sS'E.calabaricus.2'
p968
S'-------UCUUAGUUAACACGCCUGUACGUGGUGGGAAAUCCUGCCCC'
p969
sS'E.calabaricus.3'
p970
S'UCGUCC-UCGCAGAUAACGCGUUUGUACUUGGUGGGAGACCAUACCCG'
p971
sS'P.tetraurelia.1'
p972
S'CCAUUC-ACUCAGUUAACGGCUUAGUACUAAGUGGGGGACCUUGUCCU'
p973
sS'E.calabaricus.1'
p974
S'-------UCUCAGCUAACACACUUGUACUUGGUGGGAGACCCUGACCG'
p975
sS'C.paramecium.1'
p976
S'CCGUCC-UCUCAGCUAACAACCAUGUACUCAGUGGGGGACCUGGCGCN'
p977
sS'E.coli.1'
p978
S'CCAUGCCACUCAGUGAACGCCGUAGUAGUGUG-GGGUCUCCAUGAGUA'
p979
sS'C.cylindracea.1'
p980
S'CCGUCC-UCAAAGUGAACUGCUAAGUAGUGUAUGGGAGACUACGCUCA'
p981
sS'O.turbata.1'
p982
S'CCAUUCCACCCAGCUAACCUCUCAGUACUGCC-UGGAGACGGUGAGUA'
p983
sS'C.fasciculata.1'
p984
S'CCGUCC-UUUGAGUUAACACCCACGUACUGAGUCAGUGAUCUCGCCUG'
p985
sS'N.dofleini.1'
p986
S'UCGUCC-UCACAGUUAACAUUGUCGUACCUGGUGGGGGACCCUGGCCU'
p987
sS'H.bogdanii.2'
p988
S'GGGU---CCUCAGUUAACGUGCUUGUACUAGGUGGGUGACCCUAUCCU'
p989
sS'H.bogdanii.1'
p990
S'CCAUCA-ACUCAGUUGACGUGCUUGUACUAG--GAUCGAUCAUCCUC-'
p991
sS'C.zeylanoides.1'
p992
S'CCGUCC-UCAAAGUUAACUGCUAAGUAGUGUAUGGGAGACUACGCUCU'
p993
sS'A.vitis.1'
p994
S'CCAUUCCACACCGUGAACGCCCCUGUACUUCGUCU--UAACGCGAGUA'
p995
sS'Spirogyra.1'
p996
S'CCAUCA-ACUCAGUUAGCGUGGUUGUACUGGGUGAGGGAUCUUGCCCU'
p997
sS'B.japonicum.2'
p998
S'CCAUCC-ACUCAGUUAACGGCAUAGUACUUGGUGGGGGACCCAGCCCU'
p999
sS'B.japonicum.1'
p1000
S'CCAUCCCACUCCGUUAACUCUUCAGUACUAUG-GCUUAAGCCUGAGUA'
p1001
sS'L.anguillarum.1'
p1002
S'CCAUGCCACUCAGUGAACACAACAGUAGUGUG-GGGUCUCCAUGAGUA'
p1003
sS'S.pombe.1'
p1004
S'CCGUCC-UCACAGUUAACGUCUGAGUACUAUGUUGGAGACCAUGCCGG'
p1005
sS'P.popilliae.1'
p1006
S'CCAUCUCACACCGUUAACCCUCCAGUACUUGG-CCGCAGGCCUGAGCA'
p1007
sS'H.erectifolium.1'
p1008
S'CCAUCA-ACUCAGUUAACGUGCUU-------------GU------CCU'
p1009
sS'P.littoralis.1'
p1010
S'-CAUAUCACUCGGUGAACAUUAUU-UACUUAA-GAGGAGUUUUGGAUA'
p1011
sS'Sulfolobus.2'
p1012
S'UCUUCA-ACCCAGCUAAGCCGGCGGUACUGGGUCCGCGAGCCCGACCG'
p1013
sS'C.parapsilosis.1'
p1014
S'CCGUCC-UCAAAGUUAACUGCUAAGUAGUGUAUGGGAGACUACGCUCU'
p1015
sS'P.carinii.1'
p1016
S'CCGUUC-UCUGAGUUAACUCUGAAGUACUAUAUGGGUGACUAUGACGA'
p1017
sS'M.sporium.1'
p1018
S'CCAUCCCACUCCGUCAACGCUCCAGUACUAUGUCU--CAACCUGAGUA'
p1019
sS'R.sphaeroides.2'
p1020
S'CCAUCCCACUCAGUUAAUGCCGUCGUACUGCGUCU--GAACGUGAGUA'
p1021
sS'D.acuminata.1'
p1022
S'CCAUCA-ACUCAGUUAACGCGCUUGUACUGGGUGGGUGACCCCGUCCU'
p1023
sS'R.sphaeroides.1'
p1024
S'CCAUCCCACUCAGUUAAUGCCGUCGUACUGCGUCU--CAACGUGAGUA'
p1025
sS'S.ambofaciens.1'
p1026
S'ACAUUCCACCCAGCUAACCUUACAGUACUGCA-GGGGGACUGUGAGUA'
p1027
sS'K.alatavica.1'
p1028
S'---------AGAGUUAACGUGCUUGUACUAGGUGGGUGACCCUGUCCU'
p1029
sS'P.citreus.1'
p1030
S'CCAUGCCACACAGUUAACUCUUUUGUAGUUGG-GGGUUUCCCUGAGUA'
p1031
sS'A.suecica.1'
p1032
S'CCAUCA-ACUCAGUUAAA-UGCUUGUACUACGUGAGUGAACCCGGUCC'
p1033
sS'P.subcordiformis.1'
p1034
S'CCAUCA-CCCCAGUUAACUGAGUUGUACUGGAUCAGGAAUUCUGCCCC'
p1035
sS'A.lipoferum.1'
p1036
S'-CAUACCACACAGUUAACUCUUUAGUAGUUGG-GGGCUUCCCUGAGUA'
p1037
sS'H.capense.2'
p1038
S'CCAUCA-ACUCAGUUAACGUGCUUGUACUAGGUAGGUGACCCGAAGCG'
p1039
sS'P.compacta.1'
p1040
S'CCAUCCCACCCAGCUAACCCUCCAGUACUGCA-UCGUCAGUGUGAGUA'
p1041
sS'L.heterophylla.1'
p1042
S'CCAUCA-ACUCAGUUAACGCCUUUGUACUGGGUGGGUGACCCCGUCCC'
p1043
sS'M.capricolum.1'
p1044
S'CCAUGCCACACAGUUAACUCUAUU-UAUUACU-AUGUGA------AUA'
p1045
sS'T.repens.1'
p1046
S'CCAUCA-ACUCAGUUAACGUGCUUGUACUAGGUGGGUGACCCUGUCCU'
p1047
sS'G.biloba.1'
p1048
S'CCAUCA-ACUCAGUUAACACGCUUGUACUAGGUGGGUGACCCUGUCCC'
p1049
sS'Sulfolobus.1'
p1050
S'UCAUUUCACCCAGUUAACCGCUCAGCCGUGGAACCGUGAGUCC-CCCA'
p1051
sS'V.fischeri.1'
p1052
S'CCAUGCCACUCAGUGAACGUAAUAGUAGUGUG-GGGUUUCCAUGAGUA'
p1053
sS'H.patagonicum.2'
p1054
S'CCAUCA-ACUCAGUUAACAUGCUUGUACUAGGUGGGUGGCCCUGUCCU'
p1055
sS'K.albida.1'
p1056
S'CCAUUCCACCCAGCUAACCCUCCUGUACUGCA-UCGUGAGUGUGAGUA'
p1057
sS'C.zawadskii.2'
p1058
S'CCAUCA-ACUCAGUUAACGUGCUUGUACUGGCU----------GAAC-'
p1059
sS'A.madurae.1'
p1060
S'CCAUUCCACCCAGUUAACCUCUCAGUACUGCAUGGGAGACUGUGAGUA'
p1061
sS'A.acidophilum.1'
p1062
S'CCAUCCCACUCCGUGAAACCCCCAGUACUGUG-CCUCAAGCACGAGUA'
p1063
sS'H.capense.1'
p1064
S'CCAUCA-ACUCAGUUAACGUGCUUGUACUAGGUGGGUGACC---GUUA'
p1065
sS'A.sinensis.1'
p1066
S'UCAUCU-UCUCAGCUAACAACGUUGUACUUGGUGGGAUUCCCUGAUCA'
p1067
sS'R.pickettii.1'
p1068
S'CCAUCCCACAGCGUGAACGACUCC-UA---GUCGGAUUCCUGUGAGUA'
p1069
sS'B.casei.1'
p1070
S'CCGUUCCUCCCAGCUAACCCAUGUGUACUGCA-CUUGGUGUGUGAGUA'
p1071
sS'G.compressa.1'
p1072
S'CCAUCCCACUAAGCUAAUCACUUUGUACUGAGUGAGGGAUGUCUCCCC'
p1073
sS'Y.lipolytica.1'
p1074
S'CCGUCC-UCAGAGUCAACACCAGAGUAUUCUAUGGGAGACUAGGCCUG'
p1075
sS'F.hydatis.1'
p1076
S'CCAUCCCACAGAGUUAACCCGCCUGUACUGCAU----UA-UGUGAGUA'
p1077
sS'S.oshimae.1'
p1078
S'UCGUCC-UCACAGUCAACAGCGUCGUACUUGGUGGGUGACCCUGACUA'
p1079
sS'C.albicans.1'
p1080
S'CCGUUC-UCAAAGUUAACUGCUAAGUAGUGUAUGGGAGACUACGCUAU'
p1081
sS'A.faecalis.3'
p1082
S'CCAUCCCACAGUGUGAACGCCUUU-UA--GUG-ACGGACGUGUGAGUA'
p1083
sS'A.faecalis.2'
p1084
S'CCAUCCCACUCAGUGAACGACGCAGUAGUGUG-GGGUCUCCAUGAGUA'
p1085
sS'A.faecalis.1'
p1086
S'CCAUCCCACAGUGUGAACGCCUUU-UA--GUG-ACGGACGUGUGAGUA'
p1087
sS'L.macrospora.1'
p1088
S'CCGUCA-UCUGAGUUAACAAGCUAGUACUAUGUGGGGGACCAUGACUU'
p1089
sS'Photobacterium.1'
p1090
S'CCUUGCCACUCAGUGAACGUAAUAGUAGUGUG-GGGUCUCCAUGAGUA'
p1091
sS'P.cinnamomi.1'
p1092
S'CCGUCU-UCUGAGUUAACAGCCUCGUACUCGGUGGGUGACCCGGUCCG'
p1093
sS'L.discophora.1'
p1094
S'CCAUCCCACAGAGUGAACGCCUCA-UA---GUCGCAUUCGUGUGAGUA'
p1095
sS'H.morrhuae.1'
p1096
S'CCAUCCCACACAGAUAACCCGCCAGUACUGGAUGUGCGAAUCUGAACU'
p1097
sS'P.nudum.1'
p1098
S'CCGUCG-ACUCAGUUAACGCGCUUGUACUGGGUGGGUGACCCCGUCCC'
p1099
sS'B.cepacia.2'
p1100
S'CCAUCCCACAGCGUGAACGACUCU-UA---GUCGGAUUCCUGUGAGUA'
p1101
sS'L.brevis.1'
p1102
S'CCAUGCCACACAGUUAACUUCAGCGUAGUUGG-GGAUCGCCCUGGAUA'
p1103
sS'C.caldarium.1'
p1104
S'CCAUUUCAUUCAGCUAACGCCCUCGUACUGAGUGAGGGAUCUCGCCCA'
p1105
sS'Saccharomonospora.1'
p1106
S'CCAUUCCACCCAGCUAACCCACCAGUACUGCA-CCGCCGGUGUGAGUA'
p1107
sS'S.lividus.2'
p1108
S'-CAUCCCACUCGGUGAACAUCGCA-UAGUUGG-GGGUAGCCCUGAAUA'
p1109
sS'L.pneumophila.2'
p1110
S'CCAUCUCACUCAGUGAACAUUUCC-UAGUGUG-AGGCUUCCAUGAGUA'
p1111
sS'L.pneumophila.1'
p1112
S'CCAUCUCACUCAGUGAACAUUUCC-UAGUGUG-AGGCUUCCAUGAGUA'
p1113
sS'S.lividus.1'
p1114
S'-CAUCCCACUGGGUGAACGCAUUU-UAGUUGG-GGGUAGCCCUGAAUA'
p1115
sS'M.fossilis.2'
p1116
S'UCGUCC-UCUCAGCUAACAGGGUCGUACUUGGUGGGAGACCCUGACCA'
p1117
sS'B.neritina.1'
p1118
S'UCGUCC-UCACAGCUAACAACGUCGUACUUGGUGGGUGACCCUGACCA'
p1119
sS'M.fossilis.1'
p1120
S'UCGUCU-UCUCAGCCAACAGGGUUGUACUUGGUGGGAGACCCUGACCA'
p1121
sS'C.mojavensis.1'
p1122
S'CCGUCCCUCUGAGUCAACAGGUUAGUACUAUGUGGGAGACCAUGACCG'
p1123
sS'C.elegans.1'
p1124
S'CCGUCC-UCUUAGUCAACACGAUCGUACUAUGUGAGAGAUCAUGACGA'
p1125
sS'C.michiganensis.1'
p1126
S'ACAUUCCACCCAGCUAAACUCUCAGUACUGCA-GGGGGACUGUGAGUA'
p1127
sS'T.anomala.1'
p1128
S'CCGUCC-UCUGAGUUAACCUGAUAGUACUAAGUAGGGGACCUUGCCUG'
p1129
sS'A.calcoaceticus.1'
p1130
S'CCUUCCCACUCAGUGAACCUCUUCGUAGUGN--GGGUUACCAUGAGUA'
p1131
sS'B.aphidicola.1'
p1132
S'CCAUUCCACUCAGUGAACGCUACAGUAGUACG-GGGUCUCCGUGAGUA'
p1133
sS'E.gracilis.2'
p1134
S'CCGUUC-UUUCAGUUAACCGGGUUGUACUGAGUGGGCGACCUUGACUG'
p1135
sS'H.vulgare.1'
p1136
S'UCAUUCCACUCCGUGAACCGCCCAGUACUUCGUCU--UAACGCGAGUA'
p1137
sS'N.winogradskyi.1'
p1138
S'CCAUCCCACUCCGUUAACUCCUCAGUACCAUG-GCUUAAGCCUGAGUA'
p1139
sS'S.cellulosum.1'
p1140
S'CCAUACCACUCAGUUAACUUCUUGGUACUGCC-GGGCAACGGUGAGUA'
p1141
sS'B.simplex.1'
p1142
S'CCGUCC-UCUGAGAUAACUGGUGCGUACUGUCUGGGAGACGAUGACCG'
p1143
sS'H.sanguinea.1'
p1144
S'UCGUCC-UCACAGUUAACAACGUAGUACUUGGUGGGUGACCCUGAGCA'
p1145
sS'S.aurantia.1'
p1146
S'CCAUCCCACACAGUUAACUCUUCAGUACUGCUU-------UGCGAGUA'
p1147
sS'C.psychrerythraea.1'
p1148
S'CCAUUCCACUCAGUGAACGCAGUAGUAGUGUG-GAGU--UCAUGAGUA'
p1149
sS'C.diphtheriae.1'
p1150
S'CCUUUCCACCCAGCUAACCCGAUUGUACUGCA-CUGGGAGUGUGAGUA'
p1151
sS'M.glauca.1'
p1152
S'ACAUUCCACCCAGUUAACCUUCCAGUACUGCA-UGGGGACUGUGAGUA'
p1153
sS'A.thiooxidans.1'
p1154
S'CCAUCCCACAGCGUGAACACUGCA-UAGUUGA-GGGCCUCUCCGAGUC'
p1155
sS'Alcaligenes.1'
p1156
S'CCAUCCCACAGAGUGAACGCCUUU-UA--GUG-ACGGACGUGUGAGUA'
p1157
sS'T.neapolitana.1'
p1158
S'CCAUUCCACCCCGUUAACCGCCCUGUAGUAUG-GGGCAGCCAUGAGUA'
p1159
sS'H.roretzi.1'
p1160
S'UCGUUC-UCUCAGUUAACAAUGUAGUACUUGGUGGGUGACCCUGACUG'
p1161
sS'Pirellula.2'
p1162
S'CCAUUCCACACAGUCAACUUUA-A-UA------GUGCCCAAGCGAGUA'
p1163
sS'Pirellula.1'
p1164
S'CCUUUCCACACAGUUAACACAA-C-UA------GUGCCCAAGUGAGUA'
p1165
sS'A.edulis.1'
p1166
S'CCGUCU-UCUGAGUUAACACAGUGGUACCAUGUGGGGGACCAUGCCUG'
p1167
sS'H.megaseliae.1'
p1168
S'CCGUCC-UUUGAGUUAACAGCUAUGUACUAAGUUAGUGAUCUUGCCGC'
p1169
sS'A.logei.1'
p1170
S'CCAUGCCACUCAGUGAACGUAAUAGUAGUGUG-GGGUCUCCAUGAGUA'
p1171
sS'B.mori.2'
p1172
S'UCGUCC-UCACAGUCAACAACAUCGUACUUGGUGGGUGACCCUGACCA'
p1173
sS'P.vulgaris.1'
p1174
S'CCAUGCCACUCAGUGAACGUUGUA-UGGUGUG-GGGUCUCCAUGAGUA'
p1175
sS'A.laidlawii.2'
p1176
S'CCUACCCAUAUAGUUAACAUCUUA-UA----GUAUUACAAAGCGAAUA'
p1177
sS'P.vulgaris.3'
p1178
S'CCAUCA-ACUCAGUUAACGUGCUUGUACUAGGUGGGUGACCCUGUCCU'
p1179
sS'P.vulgaris.2'
p1180
S'CCAUCA-ACUCAGUUAACGUGCUUGUACUAGGUGGGUGACCCUGUCCU'
p1181
sS'C.quinquecirrha.1'
p1182
S'UCGUCC-UCACAGUCAACAUGGUCGUACCUGGUGGGUGACCCUGACCU'
p1183
sS'S.culisetae.1'
p1184
S'CCGUCC-UCUUAGUUAACUGGUGAGUACUGUGUGGGGGACCACGACGA'
p1185
sS'C.tyrobutyricum.4'
p1186
S'CCAUCCCACACAGUUAACUUUCCAGUAGUUGG-GGGUCUCCCUGAGUA'
p1187
sS'Salmonella_enterica_.1'
p1188
S'CCAUGCCACUCAGUGAACGCCGUAGUAGUGUG-GGGUCUCCAUGAGUA'
p1189
sS'V.fluvialis.1'
p1190
S'CCAUUCCACUCAGUGAACGAAACAGUAGUGUG-GGGUUUCCAUGAGUA'
p1191
sS'Hyphomicrobium.1'
p1192
S'CCAUUCCACUCCGUGAACGCCCCUGUACUUCGUCU--UAACGCGAGUA'
p1193
sS'P.shigelloides.1'
p1194
S'CCAUGCCACUCAGUGAACGCUGUAGUAGUGUG-GGGUCUCCAUGAGUA'
p1195
sS'N.crassa.3'
p1196
S'CCGUCC-UCUCAGAUAACCACCAAGUAGUUGGUCGGUGACCCAGUCCC'
p1197
sS'N.crassa.2'
p1198
S'CCGUCC-UCUCAGAUAACUACUAAAUAGUUAGUCAGUAACCCAGCCUA'
p1199
sS'N.dassonvillei.1'
p1200
S'UCUUUCCACCCCGUUAAUCUCUUUGUACUGCC-CUGUGGUGGUGAGUA'
p1201
sS'P.minor.1'
p1202
S'CCAUCA-ACUCAGUUAACGGAGUUGUACUGAGUGAGUGAUCUCGCACC'
p1203
sS'T.cruzi.1'
p1204
S'CCGUCC-UUUGAGUUAACGCCCACGUACGGCGUCAGUGAUCGCUCCGG'
p1205
sS'M.hyopneumoniae.1'
p1206
S'CCAUUCCACUCAGUUAACCUUUUU-UACUAGA----AUA-----AAUA'
p1207
sS'V.tubiashii.1'
p1208
S'CCAUGCCACUCAGUGAACGCAAUAGUAGUGUG-GGGCUUCCAUGAGUA'
p1209
sS'V.paradoxus.1'
p1210
S'CCAUCCCACAGAGUGAACGACUUU-UA---GUCGGGUUCCUGUGAGUA'
p1211
sS'M.bovis.1'
p1212
S'CCAUGCCACCCAGCUAACCUGCCA-UACUGCC-CCUCCGGU---AGUA'
p1213
sS'C.melibiosica.1'
p1214
S'CCGUCC-UCAAAGUCAACCACUUAGUAAUACAUGGGAGACUGUGUUGU'
p1215
sS'S.pasteurii.1'
p1216
S'CCAUACCACACAGUUAACUCUUCAGUAGUUGG-GUGUUAGCCUGAGUA'
p1217
sS'A.lumbricoides.1'
p1218
S'CCGUCC-UCUGAGUUAACAACGUUGUACUUGGUCGGAGACCUUGCCCA'
p1219
sS'C.cryophila.1'
p1220
S'CCAUUCCACCCAGUUAACCUUCCAGUACUGCA-UCGUGAGUGUGAGUA'
p1221
sS'Prasinocladus.1'
p1222
S'CCAUCA-UCCCAGCUAACUGAGUUGUACUGGAUCAGGAAUUCUGCCCC'
p1223
sS'M.mycoides.1'
p1224
S'CCAUGCCACACAGUUAACUCUAUU-UAUUACU-AUGUGA------AUA'
p1225
sS'Glycine_max_soybean.1'
p1226
S'CCAUCA-ACUCAGUUAACGUGCUUGUACUAGGUGGGUGACCCUGUCCU'
p1227
sS'Artemia.1'
p1228
S'UCGUCA-UCCUAGUCCCCAACGUCGUACUUGGUGGGUGACCCUGACCG'
p1229
sS'A.solani.1'
p1230
S'CCGUCC-UCUGAGACAACAACACAGUAGUGCGUGGGUGACCGUGACUG'
p1231
sS'H.neapolitanus.1'
p1232
S'CCAUCCCACACAGUGAACGCCGCA-UAGUGUG-GGGUCUCCAUGAGUA'
p1233
sS'S.brasiliensis.1'
p1234
S'ACAUUCCACCCAGCUAACCUUACAGUACUGCA-GGGGGACUGUGAGUA'
p1235
sS'O.dioica.1'
p1236
S'UCGUCC-UCACAGUCAACUACGACGUACUUACUGGGUGACGUUGACCU'
p1237
sS'T.controversa.1'
p1238
S'CCGUCC-UCUGAGUUAACAAGGUAGUACUGCGUGGGGGACCGCGCCUG'
p1239
sS'C.radiata.1'
p1240
S'CCGUCC-UCUGAGUUAACAGAGUGGUACCACGUGGGGGACCGCGCCUG'
p1241
sS'A.rubens.1'
p1242
S'UCGUCU-UCACAGUUAACAGCAUCGUACUUGGUGGGAGACCCUGACUG'
p1243
sS'P.pectinifera.1'
p1244
S'UCGUCC-UCACAGUUAACAACGUCGUACUUGGUGGGAGACCCUGACCA'
p1245
sS'H.palleronii.1'
p1246
S'CCAUCCCACAGAGUGAACGCCUUU-UA---GUCGGGUUCCUGUGAGUA'
p1247
sS'D.misakiense.1'
p1248
S'UCAGCC-CCACAGUUAACGGUUAUGUACUUGGUGGGUGACCCUGUCAC'
p1249
sS'E.ramosum.1'
p1250
S'CCAUCUCACUCCGUGAACCAGACUGUACUAA--CUGCUAAGUUGAGUA'
p1251
sS'V.ordalii.1'
p1252
S'CCAUGCCACUCAGUGAACACAACAGUAGUGUG-GGGUUUCCAUGAGUA'
p1253
sS'S.canicula.1'
p1254
S'UCGUCU-UCUCAGCUAACAGAUUCGUACUUGGUGGGAGACCCUGACCA'
p1255
sS'A.xylanus.1'
p1256
S'CCAUACCACACAGUCAACUCUUCAGUAGUUGG-GGUUUUCCCUGAGUA'
p1257
sS'T.fosteriana.1'
p1258
S'CUAUCA-ACUCAGUUAACAUGCUUGUACUAGGUGGGGGAUCCUAUCCU'
p1259
sS'S.erythraea.1'
p1260
S'CCUUUCCACCCAGCUAACCUGCCAGUACUGUA-UCGAUAGUGUGAGUA'
p1261
sS'A.pernyi.1'
p1262
S'UCGUCC-UCACAGUUAACAACGUCGUACUUGGUGGGUGACCCUGACCG'
p1263
sS'N.ceranae.1'
p1264
S'UCGUCA-UCUCAGUUAACCAGUAAGUACUGAGUGGGAAACCUCGGCUA'
p1265
sS'H.distributum.1'
p1266
S'CCAUUCCACACAGUUAACCUACCAGUACUGGAUGAGCGAUUCUGCGCG'
p1267
sS'S.obliquus.1'
p1268
S'CCAUCA-ACUCAGUUAACGUGGUUGUACUGGGUGAGGGAUCCUGCCCG'
p1269
sS'H.salinarum.1'
p1270
S'CCAUCCCACACAGAUAACCCGCCUGUACUGGAUGCGCGAGUCUGAUCC'
p1271
sS'H.distributum.2'
p1272
S'CCAUUCCACACAGUUAACCUACCAGUACUGGAUGAGCGAUUCAGCCAC'
p1273
sS'E.ezovicum.1'
p1274
S'CCAUCUCACUCCGGUAAUCAGACAGUACUAAC-GCUGAAGUU--AGUA'
p1275
sS'A.persicinum.2'
p1276
S'CCGUCC-UCUCAGUCAACUGGCGAGUAGUUGGUCGGUGACCCAGACCG'
p1277
sS'A.persicinum.3'
p1278
S'CCGUCU-UCUCAGAUAACUGACAAGUAGUUGGUCGGUGACCCAGACCG'
p1279
sS'A.persicinum.1'
p1280
S'CCGUCC-UCUCAGUCAACUGGCGAGUAGUUGGUCGGUGACCCAGACCU'
p1281
sS'B.andropogonis.1'
p1282
S'CCAUCCCACAGCGUGAACGACUCC-UAGUGCGAUU----GCGUGAGUA'
p1283
sS'H.sapiens.2'
p1284
S'UCGACU-CCUUAGCUAACAGGAUCGUAUUGGGUGGCAGACCCUGUACA'
p1285
sS'A.salmonicida.1'
p1286
S'CCAUGCCACUCAGUGAACGCGGUAGUAGUGUG-GCAUUUGCAUGAGUA'
p1287
sS'M.smegmatis.1'
p1288
S'CCAUCCCACCCAGCUAACCUGCCA-UACUACC-AUCCGGG----AGUA'
p1289
sS'M.phlei.1'
p1290
S'CCAUCCCACCCAGCUAACCUGCCA-UACUGCCU----CACGGUGAGUA'
p1291
sS'B.licheniformis.1'
p1292
S'CCAUGCCACACAGUUAACUCUUCAGUAGUUGG-GGGCUUCCCUGAGUA'
p1293
sS'H.mediterranei.1'
p1294
S'CCAUCCCACACAGUUAACUCGCCUGUACUGGAUGAGCGAUUCUGUCCA'
p1295
sS'B.vulgaris.1'
p1296
S'CCAUCA-ACUCAGUUAACGUGCUUGUACUAGGUGGGUGACCCUGUCCU'
p1297
sS'A.ferrooxidans.2'
p1298
S'CCAUUCCACUCAGUGAAACGCUUA-UAGUAUG-GGGUCUCUAUGAGUA'
p1299
sS'A.ferrooxidans.1'
p1300
S'CCAUCUCACAGCGUGAACGCUGCA-UAGUUGA-GGGUCUCUCCGAGUC'
p1301
sS'Mycoplasma.1'
p1302
S'CCAUGCCACACAGUUAACUCUAUU-UAUUACU-AUGUGA------AUA'
p1303
sS'L.pelagia.1'
p1304
S'CCAUGCCACUCAGUGAACGCAAUAGUAGUGUG-GGGUUUCCAUGAGUA'
p1305
sS'N.crassa.1'
p1306
S'CUAUCC-UUUCAAAUAACUACUAAGUAGUUAGUUGGUGACUUAGCCUA'
p1307
sS'Streptomyces.2'
p1308
S'ACAUUCCACCCAGCUAACCUCACAGUACUGCA-GGGGGACUGUGAGUA'
p1309
sS'Streptomyces.3'
p1310
S'ACAUCCCACCCAGCUAACCUCACAGUACUGCA-GGGGGACUGUGAGUA'
p1311
sS'L.delbrueckii.1'
p1312
S'CCAUGCCACACAGUUAACUUCUUAGUAGUUGGUGGGAAACCCUGGAUA'
p1313
sS'C.antarctica.1'
p1314
S'CCGUCC-UCUGAGUUAACAAGGUAGUACUGCGUGGGGGACCGCGCCUA'
p1315
sS'A.equina.1'
p1316
S'UCGUCC-UCACAGUCAACCCGGUAGUACUUGGUGGGUGACCCUGACCU'
p1317
sS'B.nigra.1'
p1318
S'CCAUCA-ACUCAGUUAACGUGCUUGUACUAGGUGGGUGACCCCGUCCU'
p1319
sS'A.temperans.1'
p1320
S'CCAUCCCACAGAGUGAACGACUUU-UA---GUCGGGUUCCUGUGAGUA'
p1321
sS'S.solfataricus.1'
p1322
S'UCAUUUCACCCAGUUAACCGCUCAGCCGUGGAACCGUGAGUCC-CCCA'
p1323
sS'D.discoideum.1'
p1324
S'CCGUUC-UCUGAGUAAACGACCUCGUACUCUGUUGGAGACCAGGAUAG'
p1325
sS'G.complanata.1'
p1326
S'CCAUCUCACUCAGUCAAGCAUUUCGUACUGACAUAGAGAUGUCCCCCC'
p1327
sS'V.diazotrophicus.1'
p1328
S'CCAUGCCACUCAGUGAACGAAUUAGUAGUGUG-GGGUCUCCAUGAGUA'
p1329
sS'K.aridum.1'
p1330
S'CCAUUCCACCCAGCUAACUCUUCAGUACUGCA-UGGGUACUGUGAGUA'
p1331
sS'X.Silurana.2'
p1332
S'UCGUCU-UCUCAGCUAACAGGGACGUACCUGGUGGGAGACCCUGACCA'
p1333
sS'G.obscurus.1'
p1334
S'ACAUUCCACCCAGCUAACCUUUCAGUACUGCA-GGGGGACUGUGAGUA'
p1335
sS'M.extorquens.1'
p1336
S'CCAUCUCACUCCGUUAACACACCAGUACUGUGUCU--CAACACGAGUC'
p1337
sS'H.muticum.2'
p1338
S'---------UCU---CACGUGCUUGUACUAGGUAGGUGACCCUGGUCG'
p1339
sS'H.muticum.1'
p1340
S'CCAUCA-ACUAAGU---AGUACUA-CCUCCUG------------UCCU'
p1341
sS'W.endosymbiont.1'
p1342
S'UCAUUUCACUCAGUGAACUUUUUA-UACUUAAA---------AGAGUA'
p1343
sS'W.endosymbiont.2'
p1344
S'UCAUUUCACUCAGUGAACUUUUUA-UACUUAAA---------AGAGUA'
p1345
sS'M.methanica.1'
p1346
S'CCAUCCCACUCAGUGAACCGCUUU-UAGUGUG-CAGUU-UCAUGAGUA'
p1347
sS'M.testaceum.1'
p1348
S'AUAUUCCACCCAGCUAACCUCUCAGUACUGCA-GGGGGACUGUGAGUA'
p1349
sS'T.nivea.1'
p1350
S'CCAUCCCACUCAGUGAACGGUGCAGUAGUGUG-GGGCCUCCAUGAGUA'
p1351
sS'S.diastaticus.1'
p1352
S'ACAUUCCACCCAGCUAACCUUUCAGUACUGCA-GGGGGACUGUGAGUA'
p1353
sS'G.gnemon.1'
p1354
S'CGAUCA-ACUCAAUUAACGCGCUUGUACUGGGUGGGUGACCUCGUCCU'
p1355
sS'B.marina.1'
p1356
S'CCAUUCCACACCGUCAACUUUU-CGUACCACAG---------UGAGUA'
p1357
sS'C.briggsae.1'
p1358
S'CCGUCC-UCUGAGUUAACAACGUUGUACUUGGUCGGAGACCCUGCCUG'
p1359
sS'Halobacterium.1'
p1360
S'CCAUCCCACACAGAUAACUCGCCUGUACUGGAUGGGCGACUCUGAUCU'
p1361
sS'Halobacterium.2'
p1362
S'CCAUUCCACACAGUGAACCCUCCAGUACUAGAUGGGAGACUCUGCGCU'
p1363
sS'A.vinelandii.1'
p1364
S'CCAUCCCACUCAGUGAACGACGCAGUAGUGUG-GGGUUUCCAUGAGUA'
p1365
sS'C.xerosis.1'
p1366
S'CCAUUCCACCCAGCUAACCCACCUGUACUGCA-CUGGGAGUGUGAGUA'
p1367
sS'S.fulvellum.1'
p1368
S'CCGUCC-UCUGAGUUAACGGCGUCGUACUACGUGGGGGACCGUGCCCC'
p1369
sS'M.gallisepticum.2'
p1370
S'CCAUUCCACCCAGUUAACAUCAUGGUA------GCGCAAG----AAUA'
p1371
sS'M.gallisepticum.1'
p1372
S'CCAUUCCACCCAGUUAACAUCAUGGUA------GCGCAAG----AAUA'
p1373
sS'S.australiensis.1'
p1374
S'CCAUUCCACCCAGUUAACCUUCCAGUACUGCA-UCGUGAGUGUGAGUA'
p1375
sS'A.laidlawii.1'
p1376
S'CCAUCCCACACAGUUAACAUCUUA-UA----GUAUUACAAAGCGAAUA'
p1377
sS'P.limnophilus.1'
p1378
S'CCAUUCCACACAGUUAACUC-CCG-UA------GUGCCCAAGCGAGUA'
p1379
sS'E.sempervivi.1'
p1380
S'CCGUCC-UCUGAGUUAACAGGGUGGUACCACGUGGGGGACCGCGCCUA'
p1381
sS'Flexibacter.1'
p1382
S'CCAUACCACACCGUUAACCCUCCAGUACUUGC-CCGCAGGGCCGAGUA'
p1383
sS'S.lomentaria.1'
p1384
S'CCGUCC-UCUGAGUUAACGGCGUCGUACUACGUGGGGGACCGUGCCCU'
p1385
sS'P.membranifaciens.1'
p1386
S'CCGUCC-UCAAAGUUAACUGCUAAGUAGUGUAAGGGCGACUACGCUCA'
p1387
sS'A.hydrophila.1'
p1388
S'CCAUGCCACUCAGUGAACGCGGUAGUAGUGUG-GCAUUUGCAUGAGUA'
p1389
sS'S.griseus.3'
p1390
S'ACAUUCCACCCAGCUAACCUUUCAGUACUUCA-GGGGGACUGUGAGUA'
p1391
sS'M.thermautotrophicus.1'
p1392
S'UCGUUUCUCUCAGUUAAUCCUGCUGUACUGCGUUUUUUG-UGUGGCCC'
p1393
sS'M.musculus.1'
p1394
S'UCGUCU-UCUCAGCUAACAGGGUCGUACUUGGUGGGAGACCCUGACCG'
p1395
sS'M.thermautotrophicus.3'
p1396
S'UCGUUUCUCUCAGUUAAUCCUGCUGUACUGCGUUUUUUG-UGUGGCCC'
p1397
sS'M.thermautotrophicus.2'
p1398
S'UCGUUUCUCUCAGUUAAUCCUGCUGUACUGCGUUUUUUG-UGUGGCCC'
p1399
sS'M.thermautotrophicus.5'
p1400
S'UCGUUUCUCUCAGUUAAUCCUGCUGUACUGCGU--GUUUUUGUGGCCC'
p1401
sS'M.thermautotrophicus.4'
p1402
S'UCGUUUCUCUCAGUUAAUCCUGCUGUACUGCGUUUUUUG-UGUGGCCC'
p1403
sS'V.cyclosites.1'
p1404
S'CCAUUCCACUCCGUGAACGCUCCAGUACUUCGUCU--CAACGCGAGUA'
p1405
sS'K.viridogrisea.1'
p1406
S'CCACAUCACCCAGCUAACCCUCCUGUACUGCA-UCGUGAGUGUGAGUA'
p1407
sS'H.sapiens.3'
p1408
S'UUGUCU-CCUCAGCUAACAGGGUCGUACUUGG-------------GCU'
p1409
sS'H.marismortui.1'
p1410
S'CCAUCCCACACAGAUAACCCACCAGUACUGGAUGCGCGAGUCUGAUCC'
p1411
sS'C.azyma.1'
p1412
S'CCGUCU-UCAAAGUCAACGCGUUAGUAUUACGUGGGAGACCGUGGGGU'
p1413
sS'T.violea.1'
p1414
S'CCGUCC-UCUGAGUCAACUCUGUAGUACCAUAUGGGGGACUAUGCCUG'
p1415
sS'U.pertusa.1'
p1416
S'CCAUCU-ACUCACUUAACCUGGUUGUACUGGGUGAGUGAUCCUGCCCC'
p1417
sS'C.edule.1'
p1418
S'UCGUCC-UCACAGUUAACAACGUCGUACUUGGUGGGUGACCCUGACCG'
p1419
sS'S.saltatrix.1'
p1420
S'UCGUCC-UCACAGUUAACAUUGUCGUACUUGGUGGGGGACCCUGUCCU'
p1421
sS'R.rhodochrous.1'
p1422
S'CCAUUCCACCCAGCUAACCUGUCUGUACUGCA-UCGACAGUGUGAGUA'
p1423
sS'O.oeni.1'
p1424
S'CCAUUCCACACAGUUAACUUGUCAGUAGUUAC-GGAACGCGUUGGUUA'
p1425
sS'B.methanolicus.9'
p1426
S'CCAUACCACACAGUUAACUUCUCAGUAGUUGG-GC-AUUGCCUGAGUA'
p1427
ssS'folds'
p1428
(dp1429
sS'consensus'
p1430
Nsb.