(iBio.Align
MultipleSeqAlignment
p0
(dp1
S'_records'
p2
(lp3
ccopy_reg
_reconstructor
p4
(cBio.SeqRecord
SeqRecord
p5
c__builtin__
object
p6
Ntp7
Rp8
(dp9
S'dbxrefs'
p10
(lp11
sS'description'
p12
S'Anabaena.1'
p13
sS'annotations'
p14
(dp15
S'accession'
p16
S'U13767.1/4803-4881'
p17
ssS'features'
p18
(lp19
sS'_seq'
p20
g4
(cBio.Seq
Seq
p21
g6
Ntp22
Rp23
(dp24
S'alphabet'
p25
(iBio.Alphabet
SingleLetterAlphabet
p26
(dp27
bsS'_data'
p28
S'GGGAGCCGUGUGCAGC---GAAA--GUUGCACGCACGGAUCUAA----------------------CAG-AGAGG----------------------------------------------------------------------------GACGGGGAAUAAUAUCCCCUCUCGACU-CU--AAC'
p29
sbsS'_per_letter_annotations'
p30
g4
(cBio.SeqRecord
_RestrictedDict
p31
c__builtin__
dict
p32
(dp33
tp34
Rp35
(dp36
S'_length'
p37
I186
sbsS'id'
p38
g13
sS'name'
p39
g13
sbag4
(g5
g6
Ntp40
Rp41
(dp42
g10
(lp43
sg12
S'Calothrix.1'
p44
sg14
(dp45
g16
S'X71404.1/2822-2898'
p46
ssg18
(lp47
sg20
g4
(g21
g6
Ntp48
Rp49
(dp50
g25
g26
sg28
S'AGGAGCCGUAUGAGGU---GAAA--GUCUCAAGUACGGUUUUG-----------------------AAG-ACCAG-----------------------------------------------------------------------------CAGGAUUGGUGACAGUCUUGCUGAGU-UU--AAU'
p51
sbsg30
g4
(g31
g32
(dp52
tp53
Rp54
(dp55
g37
I186
sbsg38
g44
sg39
g44
sbag4
(g5
g6
Ntp56
Rp57
(dp58
g10
(lp59
sg12
S'B.megaterium.1'
p60
sg14
(dp61
g16
S'AB022308.1/6486-6569'
p62
ssg18
(lp63
sg20
g4
(g21
g6
Ntp64
Rp65
(dp66
g25
g26
sg28
S'GAACGCCGUAUGCUG----GAAA--CUCGCCUGUACGGUGUGA-----------------------AGU-GGGGGAAA---------------------------------------------------------------------AGCUGGAGAUAACUUCAAAAGCUUACCUAUC-AC--UAU'
p67
sbsg30
g4
(g31
g32
(dp68
tp69
Rp70
(dp71
g37
I186
sbsg38
g60
sg39
g60
sbag4
(g5
g6
Ntp72
Rp73
(dp74
g10
(lp75
sg12
S'Bacillus.1'
p76
sg14
(dp77
g16
S'EF165030.1/2861-2955'
p78
ssg18
(lp79
sg20
g4
(g21
g6
Ntp80
Rp81
(dp82
g25
g26
sg28
S'GAACGCCGUGUGCGGG---GAAA--CUCGCACGCACGGUGUGA-----------------------AGC-GGGGAAAAAUAGC-----------------------------------------------------------CCCUCCGGGUAAUGCCGAGGGUGACUAUUACCUAUC-GC--UAU'
p83
sbsg30
g4
(g31
g32
(dp84
tp85
Rp86
(dp87
g37
I186
sbsg38
g76
sg39
g76
sbag4
(g5
g6
Ntp88
Rp89
(dp90
g10
(lp91
sg12
S'B.thuringiensis.1'
p92
sg14
(dp93
g16
S'FM992111.1/3630-3713'
p94
ssg18
(lp95
sg20
g4
(g21
g6
Ntp96
Rp97
(dp98
g25
g26
sg28
S'GAACGCCGUAUGCGGU---GAAA--GUCGCACGUACGGUGUGA-----------------------GGC-GGGGGAAA---------------------------------------------------------------------AGUUGGAGAUAACAUCAAAUUCUUACCUAUC-GU---AC'
p99
sbsg30
g4
(g31
g32
(dp100
tp101
Rp102
(dp103
g37
I186
sbsg38
g92
sg39
g92
sbag4
(g5
g6
Ntp104
Rp105
(dp106
g10
(lp107
sg12
S'B.anthracis.1'
p108
sg14
(dp109
g16
S'AF065404.1/6521-6444'
p110
ssg18
(lp111
sg20
g4
(g21
g6
Ntp112
Rp113
(dp114
g25
g26
sg28
S'UUGAGCCGUAUGUGCU---GAAA--GGUACAAGUACGGUUCUU------------------------AG-GGGAG---------------------------------------------------------------------------AAAGAGUUGGUAACACCUCUGACUUACC-CG--ACU'
p115
sbsg30
g4
(g31
g32
(dp116
tp117
Rp118
(dp119
g37
I186
sbsg38
g108
sg39
g108
sbag4
(g5
g6
Ntp120
Rp121
(dp122
g10
(lp123
sg12
S'C.perfringens.1'
p124
sg14
(dp125
g16
S'DQ787115.1/750-834'
p126
ssg18
(lp127
sg20
g4
(g21
g6
Ntp128
Rp129
(dp130
g25
g26
sg28
S'GAACGCCGUAUGCGGU---GAAA--GUCGCACGUACGGUGUGG-----------------------AGC-GGGGGAAA---------------------------------------------------------------------AAUUGGAGAUAACAUCAAAGAUUUACCUAUC-GC--UAU'
p131
sbsg30
g4
(g31
g32
(dp132
tp133
Rp134
(dp135
g37
I186
sbsg38
g124
sg39
g124
sbag4
(g5
g6
Ntp136
Rp137
(dp138
g10
(lp139
sg12
S'L.lactis.1'
p140
sg14
(dp141
g16
S'AF243383.1/10225-10322'
p142
ssg18
(lp143
sg20
g4
(g21
g6
Ntp144
Rp145
(dp146
g25
g26
sg28
S'CAGAGCCGUAUACUCC---GAGA--GGGGUACGUACGGUUCCC------------------------GA-AGAGGGUGGUGCAAAC------------------------------------------------------CAGUCACAGUAAUGUGAACAAGGCGGUACCUCCCUACU-UC---AC'
p147
sbsg30
g4
(g31
g32
(dp148
tp149
Rp150
(dp151
g37
I186
sbsg38
g140
sg39
g140
sbag4
(g5
g6
Ntp152
Rp153
(dp154
g10
(lp155
sg12
S'E.adhaerens.1'
p156
sg14
(dp157
g16
S'AY248839.1/1808-1884'
p158
ssg18
(lp159
sg20
g4
(g21
g6
Ntp160
Rp161
(dp162
g25
g26
sg28
S'GGGAGCGGUGUGAAUC---GAGA--GGUUCACGCACCGUUCUG------------------------CG-AGAGG---------------------------------------------------------------------------CCGGCUGGUGAAACUCCUCCGGCCUACU-CA---CC'
p163
sbsg30
g4
(g31
g32
(dp164
tp165
Rp166
(dp167
g37
I186
sbsg38
g156
sg39
g156
sbag4
(g5
g6
Ntp168
Rp169
(dp170
g10
(lp171
sg12
S'S.medicae.1'
p172
sg14
(dp173
g16
S'AY608906.1/1675-1716'
p174
ssg18
(lp175
sg20
g4
(g21
g6
Ntp176
Rp177
(dp178
g25
g26
sg28
S'GGGAGCGGUGUGAAUC---GAGA--GGUUCACGCACCGUUCUG-----------------------C--------------------------------------------------------------------------------------------------------G------------AG'
p179
sbsg30
g4
(g31
g32
(dp180
tp181
Rp182
(dp183
g37
I186
sbsg38
g172
sg39
g172
sbag4
(g5
g6
Ntp184
Rp185
(dp186
g10
(lp187
sg12
S'E.coli.1'
p188
sg14
(dp189
g16
S'X77508.1/2333-2408'
p190
ssg18
(lp191
sg20
g4
(g21
g6
Ntp192
Rp193
(dp194
g25
g26
sg28
S'GGGAGCGGUAUGAGCC---GAGA--GGUUCACGUACCGUUCUG------------------------CG-AGAGG----------------------------------------------------------------------------CUGCGGGGGAGGUUCCUGCGGCCUACU-CA---CC'
p195
sbsg30
g4
(g31
g32
(dp196
tp197
Rp198
(dp199
g37
I186
sbsg38
g188
sg39
g188
sbag4
(g5
g6
Ntp200
Rp201
(dp202
g10
(lp203
sg12
S'Escherichia_coli_O15.1'
p204
sg14
(dp205
g16
S'AF074613.1/60570-60649'
p206
ssg18
(lp207
sg20
g4
(g21
g6
Ntp208
Rp209
(dp210
g25
g26
sg28
S'UUGAGCCGUAUGCCGG---GAAA--CUGGCACGUACGGUUCUU------------------------AG-GGGGC---------------------------------------------------------------------------GGUGAUGCAGUAAUGCAUCACUGCUACC-CGAUCGU'
p211
sbsg30
g4
(g31
g32
(dp212
tp213
Rp214
(dp215
g37
I186
sbsg38
g204
sg39
g204
sbag4
(g5
g6
Ntp216
Rp217
(dp218
g10
(lp219
sg12
S'E.coli.2'
p220
sg14
(dp221
g16
S'AM489440.1/2183-2254'
p222
ssg18
(lp223
sg20
g4
(g21
g6
Ntp224
Rp225
(dp226
g25
g26
sg28
S'AACCGCCGUAUGCGG-------A--GCCGCAUGUACGGUGGUG------------------------UG-AGAGG----------------------------------------------------------------------------ACGGCGGGAGUGAUCCCGCCUCCUACU-CG---AU'
p227
sbsg30
g4
(g31
g32
(dp228
tp229
Rp230
(dp231
g37
I186
sbsg38
g220
sg39
g220
sbag4
(g5
g6
Ntp232
Rp233
(dp234
g10
(lp235
sg12
S'Shigella_flexneri_2a.1'
p236
sg14
(dp237
g16
S'AF200692.2/21112-21025'
p238
ssg18
(lp239
sg20
g4
(g21
g6
Ntp240
Rp241
(dp242
g25
g26
sg28
S'GAGAGCCGGAUGCGCU---GAAA--GGUGCACGUCCGGUUCGG------------------------GG-AGGAGAGGCA-----------------------------------------------------------------GGGAAAUAGUCCGACUACGCCCUGCCUCUUACU-CU--UAC'
p243
sbsg30
g4
(g31
g32
(dp244
tp245
Rp246
(dp247
g37
I186
sbsg38
g236
sg39
g236
sbag4
(g5
g6
Ntp248
Rp249
(dp250
g10
(lp251
sg12
S'P.putida.1'
p252
sg14
(dp253
g16
S'Y18999.2/2881-2957'
p254
ssg18
(lp255
sg20
g4
(g21
g6
Ntp256
Rp257
(dp258
g25
g26
sg28
S'UUGAGCCGGAUGAGGG---GCGA--CUCUCAUGUCCGGUUCUU------------------------AG-GGGAC---------------------------------------------------------------------------GGCGGCGCAGUAAUGCGCUGCUGUUACC-CG---AC'
p259
sbsg30
g4
(g31
g32
(dp260
tp261
Rp262
(dp263
g37
I186
sbsg38
g252
sg39
g252
sbag4
(g5
g6
Ntp264
Rp265
(dp266
g10
(lp267
sg12
S'P.alcaligenes.1'
p268
sg14
(dp269
g16
S'U77945.1/1848-1919'
p270
ssg18
(lp271
sg20
g4
(g21
g6
Ntp272
Rp273
(dp274
g25
g26
sg28
S'AACCGCCGUGUACG-----GAAC----CGUACGCACGGUGGUG------------------------UG-AGAGG----------------------------------------------------------------------------ACGGCGGGUGUGAAUCCGCCUCCUACU-CG---AU'
p275
sbsg30
g4
(g31
g32
(dp276
tp277
Rp278
(dp279
g37
I186
sbsg38
g268
sg39
g268
sbag4
(g5
g6
Ntp280
Rp281
(dp282
g10
(lp283
sg12
S'A.macrogynus.1'
p284
sg14
(dp285
g16
S'U41288.1/3118-3192'
p286
ssg18
(lp287
sg20
g4
(g21
g6
Ntp288
Rp289
(dp290
g25
g26
sg28
S'UUGAGCCGUAUGCGAU---GAAA--GUUGCACGUACGGUUCUU-----------------------ACC-GGGGG-------------------------------------------------------------------------------AAAGCUUGAGAGAGCCUACCUAUC-GG--AAC'
p291
sbsg30
g4
(g31
g32
(dp292
tp293
Rp294
(dp295
g37
I186
sbsg38
g284
sg39
g284
sbag4
(g5
g6
Ntp296
Rp297
(dp298
g10
(lp299
sg12
S'A.macrogynus.2'
p300
sg14
(dp301
g16
S'U41288.1/27369-27451'
p302
ssg18
(lp303
sg20
g4
(g21
g6
Ntp304
Rp305
(dp306
g25
g26
sg28
S'GAGAGCCGUAUGCGGU---GAAA--GUUGCACGUACGGUUCGG------------------------UG-GGAGGUUU---------------------------------------------------------------------CUUAUAUCCCUCGUGGAGUAGGCUAUCGACC-CA---AC'
p307
sbsg30
g4
(g31
g32
(dp308
tp309
Rp310
(dp311
g37
I186
sbsg38
g300
sg39
g300
sbag4
(g5
g6
Ntp312
Rp313
(dp314
g10
(lp315
sg12
S'C.parasitica.1'
p316
sg14
(dp317
g16
S'AF029891.1/9161-9235'
p318
ssg18
(lp319
sg20
g4
(g21
g6
Ntp320
Rp321
(dp322
g25
g26
sg28
S'UUGAGCCGUAUGCGAU---GAAA--GUCGCACGUACGGUUCUU-----------------------AGA-GGGGG-------------------------------------------------------------------------------AAAGUUCGAGAGGACCUACCUAUC-UC--AAC'
p323
sbsg30
g4
(g31
g32
(dp324
tp325
Rp326
(dp327
g37
I186
sbsg38
g316
sg39
g316
sbag4
(g5
g6
Ntp328
Rp329
(dp330
g10
(lp331
sg12
S'C.parasitica.2'
p332
sg14
(dp333
g16
S'AF029891.1/4522-4594'
p334
ssg18
(lp335
sg20
g4
(g21
g6
Ntp336
Rp337
(dp338
g25
g26
sg28
S'UUGAGCCGUAUGCCAU---GAAA--GUGGCACGUACGGUUCUG-----------------------AGG-GGGGG-------------------------------------------------------------------------------AAAGUCUGAGAGGACCUACCUAUC-CC----A'
p339
sbsg30
g4
(g31
g32
(dp340
tp341
Rp342
(dp343
g37
I186
sbsg38
g332
sg39
g332
sbag4
(g5
g6
Ntp344
Rp345
(dp346
g10
(lp347
sg12
S'P.comata.1'
p348
sg14
(dp349
g16
S'Z69899.1/2926-3021'
p350
ssg18
(lp351
sg20
g4
(g21
g6
Ntp352
Rp353
(dp354
g25
g26
sg28
S'GAGAGCCGUAUGCGGU---GAAA--GUCGCACGUACGGUUCGG------------------------AG-GAGAGUUGUUGGUU---------------------------------------------------------UCUAAGGUUUCUUUAGACUAAGGACUGGCUGCUUAUC-CU--ACA'
p355
sbsg30
g4
(g31
g32
(dp356
tp357
Rp358
(dp359
g37
I186
sbsg38
g348
sg39
g348
sbag4
(g5
g6
Ntp360
Rp361
(dp362
g10
(lp363
sg12
S'P.anserina.1'
p364
sg14
(dp365
g16
S'X04336.1/3210-3313'
p366
ssg18
(lp367
sg20
g4
(g21
g6
Ntp368
Rp369
(dp370
g25
g26
sg28
S'GAGAGCCGUAUGCAGG---GAAA--CUUGCACGUACGGUUCGG------------------------AG-GGAGGUCUCUCGUUGCCAG------------------------------------------------UUCUAAUCUAUUGAUAAGGAUCACGGUGCGGGUUAUCGACC-CU---AC'
p371
sbsg30
g4
(g31
g32
(dp372
tp373
Rp374
(dp375
g37
I186
sbsg38
g364
sg39
g364
sbag4
(g5
g6
Ntp376
Rp377
(dp378
g10
(lp379
sg12
S'P.anserina.2'
p380
sg14
(dp381
g16
S'M36911.1/2445-2539'
p382
ssg18
(lp383
sg20
g4
(g21
g6
Ntp384
Rp385
(dp386
g25
g26
sg28
S'GAGAGCCGUAUGCGGU---GAAA--GUCGCACGUACGGUUCGG------------------------AG-GAGAGUUUUUGGUU---------------------------------------------------------UCUAAGGUCUAUAUAGACUAAGGACUGGCUGCUUAUC-CU---AC'
p387
sbsg30
g4
(g31
g32
(dp388
tp389
Rp390
(dp391
g37
I186
sbsg38
g380
sg39
g380
sbag4
(g5
g6
Ntp392
Rp393
(dp394
g10
(lp395
sg12
S'P.anserina.3'
p396
sg14
(dp397
g16
S'X55026.1/77786-77867'
p398
ssg18
(lp399
sg20
g4
(g21
g6
Ntp400
Rp401
(dp402
g25
g26
sg28
S'GAGAGCCGUAUGAUGG---GAAA--CUAUCACGUACGGUUCGG------------------------GA-AAAGGUAU----------------------------------------------------------------------AUAUACUGAUAAGAGGUAUACGUAUCUAGU-UC---AU'
p403
sbsg30
g4
(g31
g32
(dp404
tp405
Rp406
(dp407
g37
I186
sbsg38
g396
sg39
g396
sbag4
(g5
g6
Ntp408
Rp409
(dp410
g10
(lp411
sg12
S'K.lactis.1'
p412
sg14
(dp413
g16
S'X57546.1/2817-2907'
p414
ssg18
(lp415
sg20
g4
(g21
g6
Ntp416
Rp417
(dp418
g25
g26
sg28
S'GAGAGCCGUAUGAUAU---GAAA--GUAUCACGUACGGUUCGG------------------------AG-AGGGCUCUCUUA-------------------------------------------------------------UAUGAUUGUUAUUACAAUCAGAUAGGUUUGCUACU-CU---AC'
p419
sbsg30
g4
(g31
g32
(dp420
tp421
Rp422
(dp423
g37
I186
sbsg38
g412
sg39
g412
sbag4
(g5
g6
Ntp424
Rp425
(dp426
g10
(lp427
sg12
S'S.cerevisiae.1'
p428
sg14
(dp429
g16
S'V00694.1/5204-5294'
p430
ssg18
(lp431
sg20
g4
(g21
g6
Ntp432
Rp433
(dp434
g25
g26
sg28
S'GAGAGCCGUAUGAUAU---GAAA--GUAUCACGUACGGUUCGG------------------------AG-AGGGCUCUUUUA-------------------------------------------------------------UAUGAAUGUUAUUACAUUCAGAUAGGUUUGCUACU-CU---AC'
p435
sbsg30
g4
(g31
g32
(dp436
tp437
Rp438
(dp439
g37
I186
sbsg38
g428
sg39
g428
sbag4
(g5
g6
Ntp440
Rp441
(dp442
g10
(lp443
sg12
S'S.cerevisiae.2'
p444
sg14
(dp445
g16
S'L36897.1/2659-2743'
p446
ssg18
(lp447
sg20
g4
(g21
g6
Ntp448
Rp449
(dp450
g25
g26
sg28
S'GAAAGCCGUAUGAUGG---GAAA--CUAUCACGUACGGUUUGG------------------------GA-AAGGCUCUU-------------------------------------------------------------------UAACACGUGGCAACAUAGGUUAAUUUGCUAUU-UC---AU'
p451
sbsg30
g4
(g31
g32
(dp452
tp453
Rp454
(dp455
g37
I186
sbsg38
g444
sg39
g444
sbag4
(g5
g6
Ntp456
Rp457
(dp458
g10
(lp459
sg12
S'S.pombe.1'
p460
sg14
(dp461
g16
S'X02819.1/3326-3410'
p462
ssg18
(lp463
sg20
g4
(g21
g6
Ntp464
Rp465
(dp466
g25
g26
sg28
S'GAGAGCCGUAUAAUUA--CGAAA--GUAUCCCGUACGGUUCGG------------------------UG-ACGAGCCG---------------------------------------------------------------------UGUCAACCCUGCAAAGGGAAUGCGUCUUAGUUCA---AU'
p467
sbsg30
g4
(g31
g32
(dp468
tp469
Rp470
(dp471
g37
I186
sbsg38
g460
sg39
g460
sbag4
(g5
g6
Ntp472
Rp473
(dp474
g10
(lp475
sg12
S'T.papilionaceus.1'
p476
sg14
(dp477
g16
S'X73671.1/1293-1367'
p478
ssg18
(lp479
sg20
g4
(g21
g6
Ntp480
Rp481
(dp482
g25
g26
sg28
S'UUGAGCCGUAUGCGAU---GAAA--GUUGCACGUACGGUUCUU-----------------------AAG-AGGGG-------------------------------------------------------------------------------AAAAUGAGUGAUCAUCUACCUAUU-CU--AAC'
p483
sbsg30
g4
(g31
g32
(dp484
tp485
Rp486
(dp487
g37
I186
sbsg38
g476
sg39
g476
sbag4
(g5
g6
Ntp488
Rp489
(dp490
g10
(lp491
sg12
S'S.obliquus.1'
p492
sg14
(dp493
g16
S'X17375.2/29364-29438'
p494
ssg18
(lp495
sg20
g4
(g21
g6
Ntp496
Rp497
(dp498
g25
g26
sg28
S'UUGAGCCGUGUGCGGU---GAAA--GUCGCAUGCACGGUUCUA-----------------------CUG-GGGGG-------------------------------------------------------------------------------AAAGCCUGAGAGGGCCUACCUAUC-CA--ACU'
p499
sbsg30
g4
(g31
g32
(dp500
tp501
Rp502
(dp503
g37
I186
sbsg38
g492
sg39
g492
sbag4
(g5
g6
Ntp504
Rp505
(dp506
g10
(lp507
sg12
S'M.polymorpha.1'
p508
sg14
(dp509
g16
S'M68929.1/120754-120816'
p510
ssg18
(lp511
sg20
g4
(g21
g6
Ntp512
Rp513
(dp514
g25
g26
sg28
S'GGGAGCCGGAUGAGGG--AGAAA-UUUCUCACGUCCGGAUCUU------------------------UG-AGAGC-------------------------------------------------------------------------------------------CUCCGGGCUACU-CU---CU'
p515
sbsg30
g4
(g31
g32
(dp516
tp517
Rp518
(dp519
g37
I186
sbsg38
g508
sg39
g508
sbag4
(g5
g6
Ntp520
Rp521
(dp522
g10
(lp523
sg12
S'M.polymorpha.2'
p524
sg14
(dp525
g16
S'X04465.1/116516-116403'
p526
ssg18
(lp527
sg20
g4
(g21
g6
Ntp528
Rp529
(dp530
g25
g26
sg28
S'GAGAGCACAGUACGAU---GAAA--GUUGUAAGCUGUGUUUGG------------------------GG-GGGAGUUAUUGUCUAUCAAAGGCC--------------------------------------UCUAUGGUAAAAUAAAUCAAUAAAGUCUAAGAGACGAUGGCUUACC-CU---GU'
p531
sbsg30
g4
(g31
g32
(dp532
tp533
Rp534
(dp535
g37
I186
sbsg38
g524
sg39
g524
sbag4
(g5
g6
Ntp536
Rp537
(dp538
g10
(lp539
sg12
S'M.polymorpha.3'
p540
sg14
(dp541
g16
S'M68929.1/49817-49892'
p542
ssg18
(lp543
sg20
g4
(g21
g6
Ntp544
Rp545
(dp546
g25
g26
sg28
S'UUGAGCCGUAUGCGG----GAAA-ACUCGCACGUACGGUUCUU-----------------------AGG-GGGGG------------------------------------------------------------------------------GAAAGCUUGAGAGGGCCUACCUAUC-CC--GAC'
p547
sbsg30
g4
(g31
g32
(dp548
tp549
Rp550
(dp551
g37
I186
sbsg38
g540
sg39
g540
sbag4
(g5
g6
Ntp552
Rp553
(dp554
g10
(lp555
sg12
S'M.polymorpha.4'
p556
sg14
(dp557
g16
S'M68929.1/41010-41093'
p558
ssg18
(lp559
sg20
g4
(g21
g6
Ntp560
Rp561
(dp562
g25
g26
sg28
S'GUGAGCCGUGUAAUGG---GCAA--CUAUUUCGCACGGUUCGG------------------------AG-GGCACUUC---------------------------------------------------------------------AGUAAGCCCUACAAGGGCUGAAGUCUUGACC-CC--UAU'
p563
sbsg30
g4
(g31
g32
(dp564
tp565
Rp566
(dp567
g37
I186
sbsg38
g556
sg39
g556
sbag4
(g5
g6
Ntp568
Rp569
(dp570
g10
(lp571
sg12
S'M.polymorpha.5'
p572
sg14
(dp573
g16
S'X04465.1/8-84'
p574
ssg18
(lp575
sg20
g4
(g21
g6
Ntp576
Rp577
(dp578
g25
g26
sg28
S'AGAAGCCGUAUGAAAU---GAAA--AUAUCAAGUACGGUUUUG-----------------------UAA-AGUGA-----------------------------------------------------------------------------CAAUUUAGGUAACUUAUUUGUCAACU-UU--UCC'
p579
sbsg30
g4
(g31
g32
(dp580
tp581
Rp582
(dp583
g37
I186
sbsg38
g572
sg39
g572
sbag4
(g5
g6
Ntp584
Rp585
(dp586
g10
(lp587
sg12
S'M.polymorpha.6'
p588
sg14
(dp589
g16
S'M68929.1/7762-7915'
p590
ssg18
(lp591
sg20
g4
(g21
g6
Ntp592
Rp593
(dp594
g25
g26
sg28
S'GAGAGCCGUAUGCGAG---GAGA--CUUGCACGUACGGUUCGG------------------------AG-GAAGGCCAUUGAUACCUAAUGAAAAUAUCACCAUGACUAAGGUAUAAGCCGCGCCUUGAAAGUCCAGAGGACUUGGUUUUAUUGGGUAGUUGAGGUUGGUGGCCCAUC-UC-UUAC'
p595
sbsg30
g4
(g31
g32
(dp596
tp597
Rp598
(dp599
g37
I186
sbsg38
g588
sg39
g588
sbag4
(g5
g6
Ntp600
Rp601
(dp602
g10
(lp603
sg12
S'D.proliferum.1'
p604
sg14
(dp605
g16
S'AJ130746.1/1754-1835'
p606
ssg18
(lp607
sg20
g4
(g21
g6
Ntp608
Rp609
(dp610
g25
g26
sg28
S'UUGAGCCGUAUGCGAA--GGAAA--CUUGCACGUGCGGUUCUUUGC-----------------UUUGAG-GGGGG-------------------------------------------------------------------------------AAAGCUUGAAAGAGCCUAUCCAUC-CU--GAU'
p611
sbsg30
g4
(g31
g32
(dp612
tp613
Rp614
(dp615
g37
I186
sbsg38
g604
sg39
g604
sbag4
(g5
g6
Ntp616
Rp617
(dp618
g10
(lp619
sg12
S'V.radicans.1'
p620
sg14
(dp621
g16
S'AJ131145.1/1727-1802'
p622
ssg18
(lp623
sg20
g4
(g21
g6
Ntp624
Rp625
(dp626
g25
g26
sg28
S'UUGAGCCGUAUGCGAG---GAAA--CUUGCACGUGCGGUUCUUU---------------------GAGG-GGGGG--------------------------------------------------------------------------------AAGCUUGAAAGAGCCUACCCAUC-CC--GAU'
p627
sbsg30
g4
(g31
g32
(dp628
tp629
Rp630
(dp631
g37
I186
sbsg38
g620
sg39
g620
sbag4
(g5
g6
Ntp632
Rp633
(dp634
g10
(lp635
sg12
S'S.wilfordii.1'
p636
sg14
(dp637
g16
S'AJ131144.1/1753-1833'
p638
ssg18
(lp639
sg20
g4
(g21
g6
Ntp640
Rp641
(dp642
g25
g26
sg28
S'UUGAGCCGUAUGCGAG---GAAA--CUUGCACGUGCGGUUCUUUGC-----------------UUUGAG-GGGGG-------------------------------------------------------------------------------AAAGCUUGAAAGAGCCUAUCCAUC-CU--GAU'
p643
sbsg30
g4
(g31
g32
(dp644
tp645
Rp646
(dp647
g37
I186
sbsg38
g636
sg39
g636
sbag4
(g5
g6
Ntp648
Rp649
(dp650
g10
(lp651
sg12
S'M.drummondii.1'
p652
sg14
(dp653
g16
S'AJ131136.1/1732-1807'
p654
ssg18
(lp655
sg20
g4
(g21
g6
Ntp656
Rp657
(dp658
g25
g26
sg28
S'UUGAGCCGUAUGCGAG---GAAA--CUUGCACGUGCGGUUCUUU---------------------GAGG-GGGGA--------------------------------------------------------------------------------AAGCUUGAAAGAGCCUAUCCAUC-CC--GAU'
p659
sbsg30
g4
(g31
g32
(dp660
tp661
Rp662
(dp663
g37
I186
sbsg38
g652
sg39
g652
sbag4
(g5
g6
Ntp664
Rp665
(dp666
g10
(lp667
sg12
S'S.auriculata.1'
p668
sg14
(dp669
g16
S'AJ131147.1/1719-1794'
p670
ssg18
(lp671
sg20
g4
(g21
g6
Ntp672
Rp673
(dp674
g25
g26
sg28
S'UUGAGCCGUAUGCGAG---GAAA--CUUGCACGUGCGGUUCUUU---------------------GAGG-GGGAA--------------------------------------------------------------------------------AAGCUUGAAAGAGCCUAUCCAUC-CC--GAU'
p675
sbsg30
g4
(g31
g32
(dp676
tp677
Rp678
(dp679
g37
I186
sbsg38
g668
sg39
g668
sbag4
(g5
g6
Ntp680
Rp681
(dp682
g10
(lp683
sg12
S'A.palmiformis.1'
p684
sg14
(dp685
g16
S'AJ130737.1/1761-1840'
p686
ssg18
(lp687
sg20
g4
(g21
g6
Ntp688
Rp689
(dp690
g25
g26
sg28
S'UUGAGCCGUAUGCGGG---GAAA--CUUGCACGUGCGGUUCUUU---------------------GAGG-GGGGG----------------------------------------------------------------------------GAGCUUGCUCGAAAGAGCCUACCUAUC-CC--GAU'
p691
sbsg30
g4
(g31
g32
(dp692
tp693
Rp694
(dp695
g37
I186
sbsg38
g684
sg39
g684
sbag4
(g5
g6
Ntp696
Rp697
(dp698
g10
(lp699
sg12
S'C.atlantica.1'
p700
sg14
(dp701
g16
S'AF143424.1/944-1083'
p702
ssg18
(lp703
sg20
g4
(g21
g6
Ntp704
Rp705
(dp706
g25
g26
sg28
S'GUGAGCCGUGUGAUGG---GAAA--CCUCCCCGCACGGUUCGGAGAGCACUUCAUUCUAAUGUUCCUGG-GGGUACCACAUCAUUGCAAGGGUAA------------------------------------CAGAGCUCGAUUCGCAGAUUGGUUCGACCCGGAAUUCACUUCCGACC-CU---GU'
p707
sbsg30
g4
(g31
g32
(dp708
tp709
Rp710
(dp711
g37
I186
sbsg38
g700
sg39
g700
sbag4
(g5
g6
Ntp712
Rp713
(dp714
g10
(lp715
sg12
S'P.amabilis.1'
p716
sg14
(dp717
g16
S'AF143423.1/825-965'
p718
ssg18
(lp719
sg20
g4
(g21
g6
Ntp720
Rp721
(dp722
g25
g26
sg28
S'GUGAGCCGUGUGAUGG---GAAA--CCUCCCCGCACGGUUCGGAGAGCACUUAAUUAGAAUGUUCCUGG-GGGGUACCACAUCAUUGCAAGGGUA-----------------------------------ACAGAGCUCGAUUCGCAGAUUGGUUCGACCCGGAAUUCACUUCCGACC-CU---GU'
p723
sbsg30
g4
(g31
g32
(dp724
tp725
Rp726
(dp727
g37
I186
sbsg38
g716
sg39
g716
sbag4
(g5
g6
Ntp728
Rp729
(dp730
g10
(lp731
sg12
S'T.mertensiana.1'
p732
sg14
(dp733
g16
S'AF143421.1/868-1007'
p734
ssg18
(lp735
sg20
g4
(g21
g6
Ntp736
Rp737
(dp738
g25
g26
sg28
S'GUGAGCCGUGUGAUGG---GAAA--CCUCCCCGCACGGUUCGGAGAGCACUUAAUUAGAAUGUUCCUGG-GGGUACCACAUCAUUGCAAGGGUAA------------------------------------AAGAGCUCGAUUCGCAGAUUGGUUCGACCCGGAAUUCACUUCCGACC-CU---GU'
p739
sbsg30
g4
(g31
g32
(dp740
tp741
Rp742
(dp743
g37
I186
sbsg38
g732
sg39
g732
sbag4
(g5
g6
Ntp744
Rp745
(dp746
g10
(lp747
sg12
S'C.panzhihuaensis.1'
p748
sg14
(dp749
g16
S'AF143425.1/760-901'
p750
ssg18
(lp751
sg20
g4
(g21
g6
Ntp752
Rp753
(dp754
g25
g26
sg28
S'GUGAGCCGUGUGAUGG---GAAA--CCUCCCCGCACGGUUCGGAGAGCACUU------CAUUCGAAUGG-GGUGAACCACCACAUCAUUGCAAGGGUAA----------------------------CAGAGCUCGCUCGAUUCGCAGAUUGGUUUGACCCGGAAUUCACUUUCGACC-CU---GU'
p755
sbsg30
g4
(g31
g32
(dp756
tp757
Rp758
(dp759
g37
I186
sbsg38
g748
sg39
g748
sbag4
(g5
g6
Ntp760
Rp761
(dp762
g10
(lp763
sg12
S'L.punctata.1'
p764
sg14
(dp765
g16
S'X03834.1/1418-1494'
p766
ssg18
(lp767
sg20
g4
(g21
g6
Ntp768
Rp769
(dp770
g25
g26
sg28
S'GGGAGCCGGAUGAGA---AGAAA-C-UCUCAUGUCCGGUUCUGU----------------------AGU-AGAGA------------------------------------------------------------------------------UGGAAUAGGGAAAUAACCAUCAACU-AU--AAC'
p771
sbsg30
g4
(g31
g32
(dp772
tp773
Rp774
(dp775
g37
I186
sbsg38
g764
sg39
g764
sbag4
(g5
g6
Ntp776
Rp777
(dp778
g10
(lp779
sg12
S'C.expansum.1'
p780
sg14
(dp781
g16
S'AF314856.1/1250-1311'
p782
ssg18
(lp783
sg20
g4
(g21
g6
Ntp784
Rp785
(dp786
g25
g26
sg28
S'ACGAGCCACAUGCAGG---GAAA--CUUGCACGUGUGGUUCUG------------------------GCCGGGGA-------------------------------------------------------------------------------------------CCCCGGUAUACU-GU---AC'
p787
sbsg30
g4
(g31
g32
(dp788
tp789
Rp790
(dp791
g37
I186
sbsg38
g780
sg39
g780
sbag4
(g5
g6
Ntp792
Rp793
(dp794
g10
(lp795
sg12
S'O.sativa.1'
p796
sg14
(dp797
g16
S'X01088.1/1893-1955'
p798
ssg18
(lp799
sg20
g4
(g21
g6
Ntp800
Rp801
(dp802
g25
g26
sg28
S'GAGAGCUUUUUGCGGG---GAAA--CUUGCAAGUAAAGUUUGG------------------------GG-GGAGG-------------------------------------------------------------------------------------------CGGGCGUCGACC-CA-ACCU'
p803
sbsg30
g4
(g31
g32
(dp804
tp805
Rp806
(dp807
g37
I186
sbsg38
g796
sg39
g796
sbag4
(g5
g6
Ntp808
Rp809
(dp810
g10
(lp811
sg12
S'T.aestivum.1'
p812
sg14
(dp813
g16
S'L43910.1/323-456'
p814
ssg18
(lp815
sg20
g4
(g21
g6
Ntp816
Rp817
(dp818
g25
g26
sg28
S'AAGAGCGCAGUACAAC---GGGG-AGUUGUAUGCUGCGUUCGG------------------------GA-AGGAUGAAUCGCUCCCGAAAAGGGAGUCUAUUG-------------------AUUCUCUCCCCAAUUGGUUGGAUCGUAGAGCGCAGUACAAGGGGCGAUGAUUUACU-UC---AC'
p819
sbsg30
g4
(g31
g32
(dp820
tp821
Rp822
(dp823
g37
I186
sbsg38
g812
sg39
g812
sbag4
(g5
g6
Ntp824
Rp825
(dp826
g10
(lp827
sg12
S'T.aestivum.2'
p828
sg14
(dp829
g16
S'AB027572.1/1941-1862'
p830
ssg18
(lp831
sg20
g4
(g21
g6
Ntp832
Rp833
(dp834
g25
g26
sg28
S'AGGAGCCGAAUGAAAU---CAAA--AUUUCAUGUUCGGUUUUGA----------------------AUU-AGAGA---------------------------------------------------------------------------CGUUAAAAAUAAUCAACCAACGUCGACU-AU--AAC'
p835
sbsg30
g4
(g31
g32
(dp836
tp837
Rp838
(dp839
g37
I186
sbsg38
g828
sg39
g828
sbag4
(g5
g6
Ntp840
Rp841
(dp842
g10
(lp843
sg12
S'T.aestivum.3'
p844
sg14
(dp845
g16
S'AB042240.3/88332-88259'
p846
ssg18
(lp847
sg20
g4
(g21
g6
Ntp848
Rp849
(dp850
g25
g26
sg28
S'GAAAGCCGUAUUCGAU---GAAA--GUCGUAUGUACGGCUUGG------------------------AG-GGAGA------------------------------------------------------------------------------UCUUUCCUAUCUUUCGAGAUCCACC-CU---AC'
p851
sbsg30
g4
(g31
g32
(dp852
tp853
Rp854
(dp855
g37
I186
sbsg38
g844
sg39
g844
sbag4
(g5
g6
Ntp856
Rp857
(dp858
g10
(lp859
sg12
S'Z.mays.1'
p860
sg14
(dp861
g16
S'X86563.2/75403-75477'
p862
ssg18
(lp863
sg20
g4
(g21
g6
Ntp864
Rp865
(dp866
g25
g26
sg28
S'UCGAGCCGGAUGAUGA--A-AAA--UUCUCAUGUCCGGUUCCUU----------------------UGG-GGGAU--------------------------------------------------------------------------------GGAUCCUAAAGAAUUCACCUAUC-CC--AAU'
p867
sbsg30
g4
(g31
g32
(dp868
tp869
Rp870
(dp871
g37
I186
sbsg38
g860
sg39
g860
sbag4
(g5
g6
Ntp872
Rp873
(dp874
g10
(lp875
sg12
S'Z.mays.2'
p876
sg14
(dp877
g16
S'X86563.2/93178-93102'
p878
ssg18
(lp879
sg20
g4
(g21
g6
Ntp880
Rp881
(dp882
g25
g26
sg28
S'AGGAGCCGUAUGAGGU---GAAA-A-UCUCAUGUACGGUUCUG-----------------------UAG-AGGGA-----------------------------------------------------------------------------CAGUAAGGAUGACUUAUCUGUCGACU-UU--UCC'
p883
sbsg30
g4
(g31
g32
(dp884
tp885
Rp886
(dp887
g37
I186
sbsg38
g876
sg39
g876
sbag4
(g5
g6
Ntp888
Rp889
(dp890
g10
(lp891
sg12
S'Z.mays.3'
p892
sg14
(dp893
g16
S'X05422.1/3488-3558'
p894
ssg18
(lp895
sg20
g4
(g21
g6
Ntp896
Rp897
(dp898
g25
g26
sg28
S'UUGAGCCGUACGAGA---UGAAA-U-UUUCAUAUACGGUUCUC-----------------------GGA-GGGGG-----------------------------------------------------------------------------------AGUCGGGCUAGUUACCUAUC-UC--AAU'
p899
sbsg30
g4
(g31
g32
(dp900
tp901
Rp902
(dp903
g37
I186
sbsg38
g892
sg39
g892
sbag4
(g5
g6
Ntp904
Rp905
(dp906
g10
(lp907
sg12
S'Z.mays.4'
p908
sg14
(dp909
g16
S'V00712.1/1227-1289'
p910
ssg18
(lp911
sg20
g4
(g21
g6
Ntp912
Rp913
(dp914
g25
g26
sg28
S'GAGAGCUUUUUGCGGG---GAAA--CUUGCAAGUCAAGUUUGG------------------------GG-GGAGG-------------------------------------------------------------------------------------------CGGGCGUCGACC-CA-ACCU'
p915
sbsg30
g4
(g31
g32
(dp916
tp917
Rp918
(dp919
g37
I186
sbsg38
g908
sg39
g908
sbag4
(g5
g6
Ntp920
Rp921
(dp922
g10
(lp923
sg12
S'Z.mays.5'
p924
sg14
(dp925
g16
S'X86563.2/124917-124799'
p926
ssg18
(lp927
sg20
g4
(g21
g6
Ntp928
Rp929
(dp930
g25
g26
sg28
S'AAGAGCGCAGUACAAC--GGGGA--GUUGUAUGCUGCGUUCGG------------------------GA-AGGAUGGAUCGCUCCCGAAAAGGAGU----------------------------------CUAUUGAUUCUCUCCCAAUUGGUUGGAUCGUAGGGGCGAUGAUUUACU-UC---AC'
p931
sbsg30
g4
(g31
g32
(dp932
tp933
Rp934
(dp935
g37
I186
sbsg38
g924
sg39
g924
sbag4
(g5
g6
Ntp936
Rp937
(dp938
g10
(lp939
sg12
S'Z.mays.6'
p940
sg14
(dp941
g16
S'Z00028.1/5121-5234'
p942
ssg18
(lp943
sg20
g4
(g21
g6
Ntp944
Rp945
(dp946
g25
g26
sg28
S'GAGAGCACAGUACGAU---GAAA--GUUGUAAGCUGUGUUCGG------------------------GG-GGGAGUUAUUGCCUAUCGUUGUCC--------------------------------------UCUAUGGUAGAACCCGUCGGGGAGGCCUGAGAGGCGGUGGUUUACC-CU---GU'
p947
sbsg30
g4
(g31
g32
(dp948
tp949
Rp950
(dp951
g37
I186
sbsg38
g940
sg39
g940
sbag4
(g5
g6
Ntp952
Rp953
(dp954
g10
(lp955
sg12
S'Z.mays.7'
p956
sg14
(dp957
g16
S'M15176.1/580-656'
p958
ssg18
(lp959
sg20
g4
(g21
g6
Ntp960
Rp961
(dp962
g25
g26
sg28
S'AGGAGCUGGAUGAGA---AGAAA-C-UCUCAUGUCCAGUUUUGU----------------------AGU-AGAGA------------------------------------------------------------------------------UGGAACUAAGAAGGAACCAUCGACU-AU--AAC'
p963
sbsg30
g4
(g31
g32
(dp964
tp965
Rp966
(dp967
g37
I186
sbsg38
g956
sg39
g956
sbag4
(g5
g6
Ntp968
Rp969
(dp970
g10
(lp971
sg12
S'A.trichopoda.1'
p972
sg14
(dp973
g16
S'AF235045.1/658-731'
p974
ssg18
(lp975
sg20
g4
(g21
g6
Ntp976
Rp977
(dp978
g25
g26
sg28
S'GAAAGCCGUAUUCGAU---GAAA--GUCGUAUGUACGGCUUGG------------------------AG-GGAGA------------------------------------------------------------------------------UCUUUCAUAUCUUUCGAGAUCCACC-CU---AC'
p979
sbsg30
g4
(g31
g32
(dp980
tp981
Rp982
(dp983
g37
I186
sbsg38
g972
sg39
g972
sbag4
(g5
g6
Ntp984
Rp985
(dp986
g10
(lp987
sg12
S'S.oleracea.1'
p988
sg14
(dp989
g16
S'X07106.1/2899-2978'
p990
ssg18
(lp991
sg20
g4
(g21
g6
Ntp992
Rp993
(dp994
g25
g26
sg28
S'UUGAGCCGGAUGAUGA---AAAA--UUAUCAUGUCCGGUUCUUU----------------------CGG-GGGAU---------------------------------------------------------------------------GAAUUGAAUCUAUAAGAAUUCACCUAUC-CU--AAU'
p995
sbsg30
g4
(g31
g32
(dp996
tp997
Rp998
(dp999
g37
I186
sbsg38
g988
sg39
g988
sbag4
(g5
g6
Ntp1000
Rp1001
(dp1002
g10
(lp1003
sg12
S'S.oleracea.2'
p1004
sg14
(dp1005
g16
S'X07106.1/1306-1373'
p1006
ssg18
(lp1007
sg20
g4
(g21
g6
Ntp1008
Rp1009
(dp1010
g25
g26
sg28
S'UUGAGCUGUACGAGAU---GAAA--GUCUCAUAUACAGUUCUU-----------------------AGG-GGGGU--------------------------------------------------------------------------------------UUAAUAGUUUACCUAUC-UC--AAU'
p1011
sbsg30
g4
(g31
g32
(dp1012
tp1013
Rp1014
(dp1015
g37
I186
sbsg38
g1004
sg39
g1004
sbag4
(g5
g6
Ntp1016
Rp1017
(dp1018
g10
(lp1019
sg12
S'D.carota.1'
p1020
sg14
(dp1021
g16
S'X63625.1/1815-1875'
p1022
ssg18
(lp1023
sg20
g4
(g21
g6
Ntp1024
Rp1025
(dp1026
g25
g26
sg28
S'GAGAGCUUUUUGCGGG---GAAA--CUUGCAAGUACAGUUUGG------------------------AG-GGAGG-------------------------------------------------------------------------------------------CGGGCGUCGACC-CA---AC'
p1027
sbsg30
g4
(g31
g32
(dp1028
tp1029
Rp1030
(dp1031
g37
I186
sbsg38
g1020
sg39
g1020
sbag4
(g5
g6
Ntp1032
Rp1033
(dp1034
g10
(lp1035
sg12
S'H.annuus.1'
p1036
sg14
(dp1037
g16
S'X62341.1/1274-1336'
p1038
ssg18
(lp1039
sg20
g4
(g21
g6
Ntp1040
Rp1041
(dp1042
g25
g26
sg28
S'GAGAGCUUUUUGCGGG---GAAA--CUUGCAAGUACAGUUUGG------------------------GG-GGAGA-------------------------------------------------------------------------------------------CGGGCGUCGACC-CA-ACCU'
p1043
sbsg30
g4
(g31
g32
(dp1044
tp1045
Rp1046
(dp1047
g37
I186
sbsg38
g1036
sg39
g1036
sbag4
(g5
g6
Ntp1048
Rp1049
(dp1050
g10
(lp1051
sg12
S'N.tabacum.1'
p1052
sg14
(dp1053
g16
S'X03481.1/524-600'
p1054
ssg18
(lp1055
sg20
g4
(g21
g6
Ntp1056
Rp1057
(dp1058
g25
g26
sg28
S'AGGAGCCGUAUGAGGU---GAAA--AUCUCAUGUACGGUUCUG-----------------------UAG-AGUGG-----------------------------------------------------------------------------CAGUAAGGGUGACUUAUCUGUCAACU-UU--UCC'
p1059
sbsg30
g4
(g31
g32
(dp1060
tp1061
Rp1062
(dp1063
g37
I186
sbsg38
g1052
sg39
g1052
sbag4
(g5
g6
Ntp1064
Rp1065
(dp1066
g10
(lp1067
sg12
S'N.tabacum.2'
p1068
sg14
(dp1069
g16
S'Z00044.2/12705-12618'
p1070
ssg18
(lp1071
sg20
g4
(g21
g6
Ntp1072
Rp1073
(dp1074
g25
g26
sg28
S'GAGAGCCAAAUGAAUC---GAAA--GAUUCAUGUUUGGUUCGG------------------------GA-AGGGAUUAUG-----------------------------------------------------------------GAAUUUUGGAAAGGAAUGGAAAAAUAAUCUACUUUC---AU'
p1075
sbsg30
g4
(g31
g32
(dp1076
tp1077
Rp1078
(dp1079
g37
I186
sbsg38
g1068
sg39
g1068
sbag4
(g5
g6
Ntp1080
Rp1081
(dp1082
g10
(lp1083
sg12
S'N.tabacum.3'
p1084
sg14
(dp1085
g16
S'Z00044.2/23180-23109'
p1086
ssg18
(lp1087
sg20
g4
(g21
g6
Ntp1088
Rp1089
(dp1090
g25
g26
sg28
S'UUGAGCCGGAUGAAAG---GAAA--CUUUCACGUCCGAUUUUGA----------------------AGG-GGGGG-----------------------------------------------------------------------------------AGAUCCUAUAGAAUCCUAUC-CC--AAU'
p1091
sbsg30
g4
(g31
g32
(dp1092
tp1093
Rp1094
(dp1095
g37
I186
sbsg38
g1084
sg39
g1084
sbag4
(g5
g6
Ntp1096
Rp1097
(dp1098
g10
(lp1099
sg12
S'N.tabacum.4'
p1100
sg14
(dp1101
g16
S'Z00044.2/84143-84067'
p1102
ssg18
(lp1103
sg20
g4
(g21
g6
Ntp1104
Rp1105
(dp1106
g25
g26
sg28
S'AGGAGCUGGAUGAGA---AGAAA--CUCUCACGUCCGGUUCUGU----------------------AGU-AGAGA------------------------------------------------------------------------------UGGAAUUCAGAAACAACCAUCAACU-AU--AAC'
p1107
sbsg30
g4
(g31
g32
(dp1108
tp1109
Rp1110
(dp1111
g37
I186
sbsg38
g1100
sg39
g1100
sbag4
(g5
g6
Ntp1112
Rp1113
(dp1114
g10
(lp1115
sg12
S'N.tabacum.5'
p1116
sg14
(dp1117
g16
S'Z00044.2/44465-44397'
p1118
ssg18
(lp1119
sg20
g4
(g21
g6
Ntp1120
Rp1121
(dp1122
g25
g26
sg28
S'CUGAGCCGUAUGAGG-UAAGAAA--UUCUCAAGUACGGUUCUA-----------------------AGG-GAAGG---------------------------------------------------------------------------------------AAUUGAACUACCUAUU-CC--GGC'
p1123
sbsg30
g4
(g31
g32
(dp1124
tp1125
Rp1126
(dp1127
g37
I186
sbsg38
g1116
sg39
g1116
sbag4
(g5
g6
Ntp1128
Rp1129
(dp1130
g10
(lp1131
sg12
S'N.tabacum.6'
p1132
sg14
(dp1133
g16
S'Z00044.2/45483-45410'
p1134
ssg18
(lp1135
sg20
g4
(g21
g6
Ntp1136
Rp1137
(dp1138
g25
g26
sg28
S'AGGAGCCGUAUGAGGU---GAAA--AUCUCACGUACGGUUCUGG----------------------AAC-GGAGA---------------------------------------------------------------------------------UUCUUUCAAUUGAAUGACGACC-GU--AAC'
p1139
sbsg30
g4
(g31
g32
(dp1140
tp1141
Rp1142
(dp1143
g37
I186
sbsg38
g1132
sg39
g1132
sbag4
(g5
g6
Ntp1144
Rp1145
(dp1146
g10
(lp1147
sg12
S'N.tabacum.7'
p1148
sg14
(dp1149
g16
S'X03415.1/1030-1100'
p1150
ssg18
(lp1151
sg20
g4
(g21
g6
Ntp1152
Rp1153
(dp1154
g25
g26
sg28
S'UCGAGCCGUACGAGG---AGAAA--GCUUCCUAUACGUUUCUA-----------------------GGG-GGGGU-----------------------------------------------------------------------------------GUUGUUCAUCUACAUCAAUC-CC--AAU'
p1155
sbsg30
g4
(g31
g32
(dp1156
tp1157
Rp1158
(dp1159
g37
I186
sbsg38
g1148
sg39
g1148
sbag4
(g5
g6
Ntp1160
Rp1161
(dp1162
g10
(lp1163
sg12
S'N.tabacum.8'
p1164
sg14
(dp1165
g16
S'V00166.1/1829-1941'
p1166
ssg18
(lp1167
sg20
g4
(g21
g6
Ntp1168
Rp1169
(dp1170
g25
g26
sg28
S'GAGAGCACAGUACGAU---GAAA--GUUGUAAGCUGUGUUCGG------------------------GG-GGGAGUUAUUGUCUAUCGUUGGC---------------------------------------CUCUAUGGUAGAAUCAGUCGGGGGACCUGAGAGGCGGUGGUUUACC-CU---GC'
p1171
sbsg30
g4
(g31
g32
(dp1172
tp1173
Rp1174
(dp1175
g37
I186
sbsg38
g1164
sg39
g1164
sbag4
(g5
g6
Ntp1176
Rp1177
(dp1178
g10
(lp1179
sg12
S'N.sylvestris.1'
p1180
sg14
(dp1181
g16
S'AJ315331.1/53-130'
p1182
ssg18
(lp1183
sg20
g4
(g21
g6
Ntp1184
Rp1185
(dp1186
g25
g26
sg28
S'AGGAGCCGUAUGAGAU---GAAA--AUCUCACGUACGGUUCUGU----------------------AAU-AGCGA-----------------------------------------------------------------------------UGGGCACAGUGAUGUUAUCAUCGACU-AU--GAU'
p1187
sbsg30
g4
(g31
g32
(dp1188
tp1189
Rp1190
(dp1191
g37
I186
sbsg38
g1180
sg39
g1180
sbag4
(g5
g6
Ntp1192
Rp1193
(dp1194
g10
(lp1195
sg12
S'Petunia_x_hybrida.1'
p1196
sg14
(dp1197
g16
S'X17395.1/1934-1994'
p1198
ssg18
(lp1199
sg20
g4
(g21
g6
Ntp1200
Rp1201
(dp1202
g25
g26
sg28
S'GAGAGCUUUUUGCGGG---GAAA--CUUGCAAGUACAGUUUGG------------------------GG-GGAGG-------------------------------------------------------------------------------------------CGGGCGUCGACC-CU---AC'
p1203
sbsg30
g4
(g31
g32
(dp1204
tp1205
Rp1206
(dp1207
g37
I186
sbsg38
g1196
sg39
g1196
sbag4
(g5
g6
Ntp1208
Rp1209
(dp1210
g10
(lp1211
sg12
S'A.belladonna.1'
p1212
sg14
(dp1213
g16
S'AJ316582.1/78387-78450'
p1214
ssg18
(lp1215
sg20
g4
(g21
g6
Ntp1216
Rp1217
(dp1218
g25
g26
sg28
S'UUGAGCUGUACGAGAU---GAAA--GUCUCAUAUACGGUUCUC-----------------------AGA-GGGGG------------------------------------------------------------------------------------------AGUUCCGCCUAUC-UC--AAU'
p1219
sbsg30
g4
(g31
g32
(dp1220
tp1221
Rp1222
(dp1223
g37
I186
sbsg38
g1212
sg39
g1212
sbag4
(g5
g6
Ntp1224
Rp1225
(dp1226
g10
(lp1227
sg12
S'A.belladonna.2'
p1228
sg14
(dp1229
g16
S'AJ316582.1/9914-9993'
p1230
ssg18
(lp1231
sg20
g4
(g21
g6
Ntp1232
Rp1233
(dp1234
g25
g26
sg28
S'AGGAGCCGAAUGAAAC---CAAA--GUUUCAUGUUCGGUUUUGA----------------------AUU-AGAGA---------------------------------------------------------------------------CGUUAAAAAUAAUGAAUCGACGUCGACU-AU--AAC'
p1235
sbsg30
g4
(g31
g32
(dp1236
tp1237
Rp1238
(dp1239
g37
I186
sbsg38
g1228
sg39
g1228
sbag4
(g5
g6
Ntp1240
Rp1241
(dp1242
g10
(lp1243
sg12
S'A.belladonna.3'
p1244
sg14
(dp1245
g16
S'AJ316582.1/98150-98072'
p1246
ssg18
(lp1247
sg20
g4
(g21
g6
Ntp1248
Rp1249
(dp1250
g25
g26
sg28
S'AGGAGCCGUGUGAGAU---GAAA--GUCUCAUGCACGGUUUUGAA--------------------UGAG-AGAAA------------------------------------------------------------------------------GAAGUGAGGAAUCCUCUUUUCGACU-CU--GAC'
p1251
sbsg30
g4
(g31
g32
(dp1252
tp1253
Rp1254
(dp1255
g37
I186
sbsg38
g1244
sg39
g1244
sbag4
(g5
g6
Ntp1256
Rp1257
(dp1258
g10
(lp1259
sg12
S'S.lycopersicum.1'
p1260
sg14
(dp1261
g16
S'AM087200.3/1962-1851'
p1262
ssg18
(lp1263
sg20
g4
(g21
g6
Ntp1264
Rp1265
(dp1266
g25
g26
sg28
S'GAAAGCCGUGUGCA--A-UGAAAAG--UGCAAGCACGGCUUGG------------------------GG-AGGGAUCUUUACUUGUUUAUUUA----------------------------------------AUUUAAGAUUAACAUUUAUUUUAUUUAACAAGGAACUUAUCUACU-CC---AU'
p1267
sbsg30
g4
(g31
g32
(dp1268
tp1269
Rp1270
(dp1271
g37
I186
sbsg38
g1260
sg39
g1260
sbag4
(g5
g6
Ntp1272
Rp1273
(dp1274
g10
(lp1275
sg12
S'S.lycopersicum.2'
p1276
sg14
(dp1277
g16
S'DQ347959.1/73085-73025'
p1278
ssg18
(lp1279
sg20
g4
(g21
g6
Ntp1280
Rp1281
(dp1282
g25
g26
sg28
S'UUGAACCGUAUGCAUC---AAAA--GGCGCAUGUACGGUUCCU-----------------------AAG-GGAUA---------------------------------------------------------------------------------------------CAAUUUUACC-CU--AAU'
p1283
sbsg30
g4
(g31
g32
(dp1284
tp1285
Rp1286
(dp1287
g37
I186
sbsg38
g1276
sg39
g1276
sbag4
(g5
g6
Ntp1288
Rp1289
(dp1290
g10
(lp1291
sg12
S'O.lamarckiana.1'
p1292
sg14
(dp1293
g16
S'X97295.1/1333-1451'
p1294
ssg18
(lp1295
sg20
g4
(g21
g6
Ntp1296
Rp1297
(dp1298
g25
g26
sg28
S'GAGAGCGCAGUACAAC--GGAGA--GUUGUAUGCUGCGUUCGG------------------------GA-AGGAUGAAUCGCUCCCGAAAAGGAAU----------------------------------CUAUUGAUUCUCUCCCAAUUGGUUGGACCGUAGGUGCGAUGAUUUACU-UC---AC'
p1299
sbsg30
g4
(g31
g32
(dp1300
tp1301
Rp1302
(dp1303
g37
I186
sbsg38
g1292
sg39
g1292
sbag4
(g5
g6
Ntp1304
Rp1305
(dp1306
g10
(lp1307
sg12
S'O.berteroana.1'
p1308
sg14
(dp1309
g16
S'M81726.1/5191-5288'
p1310
ssg18
(lp1311
sg20
g4
(g21
g6
Ntp1312
Rp1313
(dp1314
g25
g26
sg28
S'GUGAGCCGUAUGAUGG---GCAA--CUAUCUCCUGCGGUUCGG------------------------AG-AGGACUCAGCUGUUAG------------------------------------------------------UUAGUACCCCCGUCGGUUUCGGGGUGGACCCUUUUACU-CU---AU'
p1315
sbsg30
g4
(g31
g32
(dp1316
tp1317
Rp1318
(dp1319
g37
I186
sbsg38
g1308
sg39
g1308
sbag4
(g5
g6
Ntp1320
Rp1321
(dp1322
g10
(lp1323
sg12
S'C.arietinum.1'
p1324
sg14
(dp1325
g16
S'AC145820.20/76117-76030'
p1326
ssg18
(lp1327
sg20
g4
(g21
g6
Ntp1328
Rp1329
(dp1330
g25
g26
sg28
S'GAGAGCCAAAUGAAUU---GAAA--GAUUCAUGUUUGGUUCGG------------------------GA-AGAGAUCAUA-----------------------------------------------------------------GACAUUUUGAAAUGAAUGGAAAGAGAAUCUACUUUC---AU'
p1331
sbsg30
g4
(g31
g32
(dp1332
tp1333
Rp1334
(dp1335
g37
I186
sbsg38
g1324
sg39
g1324
sbag4
(g5
g6
Ntp1336
Rp1337
(dp1338
g10
(lp1339
sg12
S'V.faba.1'
p1340
sg14
(dp1341
g16
S'Y12731.1/1118-1260'
p1342
ssg18
(lp1343
sg20
g4
(g21
g6
Ntp1344
Rp1345
(dp1346
g25
g26
sg28
S'GUGAGCCGUGUGAUGG---GAAA--CCUUCCCGCACGGUUCGG------------------------AG-AGCACUUAAUUAGAAUGAGAGGUUCACCACCACAUCAU---------UGCAUGCAAGGGGAGCUCGCUCGAUUCGCAAAUAGGUCCGACUCGUAAUUAACUUCUGACU-CC---GU'
p1347
sbsg30
g4
(g31
g32
(dp1348
tp1349
Rp1350
(dp1351
g37
I186
sbsg38
g1340
sg39
g1340
sbag4
(g5
g6
Ntp1352
Rp1353
(dp1354
g10
(lp1355
sg12
S'V.unguiculata.1'
p1356
sg14
(dp1357
g16
S'X72287.1/717-859'
p1358
ssg18
(lp1359
sg20
g4
(g21
g6
Ntp1360
Rp1361
(dp1362
g25
g26
sg28
S'GUGAGCCGUGUGAUGG---GAAA--CCUUCCCGCACGGUUCGG------------------------AG-AGCACUGAAUUAGAAUGAGAGGUUCACCACCACAUCAU---------UGCAUGCAAGGGGAGCUCGCUCGAUUCGCAAAUUGGUCCGACUCGUAAUUCACUUCUGACU-CC---GU'
p1363
sbsg30
g4
(g31
g32
(dp1364
tp1365
Rp1366
(dp1367
g37
I186
sbsg38
g1356
sg39
g1356
sbag4
(g5
g6
Ntp1368
Rp1369
(dp1370
g10
(lp1371
sg12
S'C.caroliniana.1'
p1372
sg14
(dp1373
g16
S'AF080083.1/1551-1683'
p1374
ssg18
(lp1375
sg20
g4
(g21
g6
Ntp1376
Rp1377
(dp1378
g25
g26
sg28
S'GAGAGCCGUGUGAUGG---GUGA--CUAUCCAGCACGGUUCGG------------------------AG-AGCACUUUUAGUCUGCGUUGGUGAAUGAAAGCC-------------------CCCCCCCAUCAAGCAAGAAAGAAGCGGCUCUUCCCACGGCGGAGUCACCAUUGACU-CU---AU'
p1379
sbsg30
g4
(g31
g32
(dp1380
tp1381
Rp1382
(dp1383
g37
I186
sbsg38
g1372
sg39
g1372
sbag4
(g5
g6
Ntp1384
Rp1385
(dp1386
g10
(lp1387
sg12
S'A.thaliana.1'
p1388
sg14
(dp1389
g16
S'Y08501.2/135699-135828'
p1390
ssg18
(lp1391
sg20
g4
(g21
g6
Ntp1392
Rp1393
(dp1394
g25
g26
sg28
S'UCGAGCCGUAUGAAGG---GAAA--CUCUCACGUACAGUUUGUUUU-----------------UUUUGG-GGGGGGCAGGAGCCCGACAGGGUCCCCC------------------------------ACUGACUUGGCCCGGGCCUAAGUUAAAGUGAAGUGGUGGGCCUACCCAUC-CC--AAC'
p1395
sbsg30
g4
(g31
g32
(dp1396
tp1397
Rp1398
(dp1399
g37
I186
sbsg38
g1388
sg39
g1388
sbag4
(g5
g6
Ntp1400
Rp1401
(dp1402
g10
(lp1403
sg12
S'A.thaliana.2'
p1404
sg14
(dp1405
g16
S'X72616.1/122-187'
p1406
ssg18
(lp1407
sg20
g4
(g21
g6
Ntp1408
Rp1409
(dp1410
g25
g26
sg28
S'AAGAGCCGUACGAG-----GCAG----CUCACGUACGGUUCGG------------------------GAGCCGAG-----------------------------------------------------------------------------------CCCCUGCACAGGGGCUUAGG-UC---AA'
p1411
sbsg30
g4
(g31
g32
(dp1412
tp1413
Rp1414
(dp1415
g37
I186
sbsg38
g1404
sg39
g1404
sbag4
(g5
g6
Ntp1416
Rp1417
(dp1418
g10
(lp1419
sg12
S'A.thaliana.3'
p1420
sg14
(dp1421
g16
S'Y08501.2/169475-169584'
p1422
ssg18
(lp1423
sg20
g4
(g21
g6
Ntp1424
Rp1425
(dp1426
g25
g26
sg28
S'GUGAGCCUAGUGAUAG---GAGA--CUAUCUAGCUUGGUUCGG------------------------AG-AGCACUUGUUGGGUUAAAAACU-----------------------------------------UUUUUUGUUGCUAAAUGUUACAGCCUAAAUGCUGAACUAUUGACU-CU----A'
p1427
sbsg30
g4
(g31
g32
(dp1428
tp1429
Rp1430
(dp1431
g37
I186
sbsg38
g1420
sg39
g1420
sbag4
(g5
g6
Ntp1432
Rp1433
(dp1434
g10
(lp1435
sg12
S'A.thaliana.4'
p1436
sg14
(dp1437
g16
S'Y08501.2/133100-133176'
p1438
ssg18
(lp1439
sg20
g4
(g21
g6
Ntp1440
Rp1441
(dp1442
g25
g26
sg28
S'GUGAGCGCAUGCGGG----GAGA--CCCGCACGUACGGUUUUU------------------------AG-GGGGAU--------------------------------------------------------------------------CUGGCCGAAAGACCGGCCGGCGCCCACC-CG---AC'
p1443
sbsg30
g4
(g31
g32
(dp1444
tp1445
Rp1446
(dp1447
g37
I186
sbsg38
g1436
sg39
g1436
sbag4
(g5
g6
Ntp1448
Rp1449
(dp1450
g10
(lp1451
sg12
S'A.thaliana.5'
p1452
sg14
(dp1453
g16
S'X60045.1/1000-1142'
p1454
ssg18
(lp1455
sg20
g4
(g21
g6
Ntp1456
Rp1457
(dp1458
g25
g26
sg28
S'GUGAGCCGUGUGAUGG---GAAA--CCUUCCCGCACGGUUCGG------------------------AG-AGCACUGAAUUAGAAUGAGAGGUUCACCACCACAUCAU---------UGCAUGCAAGGGGAGCUCGCUCGAUUCGCAAAUAGGUCCGACUCGUAAUUCACUUCUGACU-CU---GU'
p1459
sbsg30
g4
(g31
g32
(dp1460
tp1461
Rp1462
(dp1463
g37
I186
sbsg38
g1452
sg39
g1452
sbag4
(g5
g6
Ntp1464
Rp1465
(dp1466
g10
(lp1467
sg12
S'P.littoralis.1'
p1468
sg14
(dp1469
g16
S'AB281599.1/897-973'
p1470
ssg18
(lp1471
sg20
g4
(g21
g6
Ntp1472
Rp1473
(dp1474
g25
g26
sg28
S'AGGAGCCGUAUGAAUG---GAGA--CAUUCACGUACGGUUUUGG----------------------AGU-AGCAG------------------------------------------------------------------------------GAUAUAUGGUAACAUGUACUUGACU-AU--AAG'
p1475
sbsg30
g4
(g31
g32
(dp1476
tp1477
Rp1478
(dp1479
g37
I186
sbsg38
g1468
sg39
g1468
sbag4
(g5
g6
Ntp1480
Rp1481
(dp1482
g10
(lp1483
sg12
S'P.littoralis.2'
p1484
sg14
(dp1485
g16
S'AJ277126.1/33096-33168'
p1486
ssg18
(lp1487
sg20
g4
(g21
g6
Ntp1488
Rp1489
(dp1490
g25
g26
sg28
S'GCGAGCCGUAUGAUGG---GAAA--CUAUCACGUACGGUUCUG------------------------AG-GGCAA--------------------------------------------------------------------------------GGUAUAUUCUAAAUGCCUUGACCCCU---AC'
p1491
sbsg30
g4
(g31
g32
(dp1492
tp1493
Rp1494
(dp1495
g37
I186
sbsg38
g1484
sg39
g1484
sbag4
(g5
g6
Ntp1496
Rp1497
(dp1498
g10
(lp1499
sg12
S'P.littoralis.3'
p1500
sg14
(dp1501
g16
S'AJ277126.1/2879-2953'
p1502
ssg18
(lp1503
sg20
g4
(g21
g6
Ntp1504
Rp1505
(dp1506
g25
g26
sg28
S'UUCAGCCGUGUGCGGU---GAAA--GUCGCACGCACGGUUGUG-----------------------AGG-GGGGG-------------------------------------------------------------------------------AAAAUCUGUGAAGAUCUACCUAUC-CC--GAU'
p1507
sbsg30
g4
(g31
g32
(dp1508
tp1509
Rp1510
(dp1511
g37
I186
sbsg38
g1500
sg39
g1500
sbag4
(g5
g6
Ntp1512
Rp1513
(dp1514
g10
(lp1515
sg12
S'P.littoralis.4'
p1516
sg14
(dp1517
g16
S'AJ277126.1/9249-9325'
p1518
ssg18
(lp1519
sg20
g4
(g21
g6
Ntp1520
Rp1521
(dp1522
g25
g26
sg28
S'AGGAGCCGUAUGAAUG---GAGA--CAUUCACGUACGGUUUUGG----------------------AGU-AGCAG------------------------------------------------------------------------------GAUAUAUGGUAACAUGUACUUGACU-AU--AAG'
p1523
sbsg30
g4
(g31
g32
(dp1524
tp1525
Rp1526
(dp1527
g37
I186
sbsg38
g1516
sg39
g1516
sbag4
(g5
g6
Ntp1528
Rp1529
(dp1530
g10
(lp1531
sg12
S'P.littoralis.5'
p1532
sg14
(dp1533
g16
S'AJ277126.1/8230-8302'
p1534
ssg18
(lp1535
sg20
g4
(g21
g6
Ntp1536
Rp1537
(dp1538
g25
g26
sg28
S'UUGAGCCGUGUGCGUU---GAAA--GAUGCAUGCACGGUUCUU-----------------------AGG-GGGGG---------------------------------------------------------------------------------AAAGCCGGUAACCGUACCUAUC-CC--AAU'
p1539
sbsg30
g4
(g31
g32
(dp1540
tp1541
Rp1542
(dp1543
g37
I186
sbsg38
g1532
sg39
g1532
sbag4
(g5
g6
Ntp1544
Rp1545
(dp1546
g10
(lp1547
sg12
S'P.littoralis.6'
p1548
sg14
(dp1549
g16
S'AJ277126.1/35792-35885'
p1550
ssg18
(lp1551
sg20
g4
(g21
g6
Ntp1552
Rp1553
(dp1554
g25
g26
sg28
S'GAGAGCCCGGUGCGGU---GAAA--GUCGCACGCCGGGUUCGG------------------------GG-AGAACUCUCUGUAA----------------------------------------------------------CUAAAAUAUUUCGGUAUCACGUUAUGGUUAGUCACU-CC---AC'
p1555
sbsg30
g4
(g31
g32
(dp1556
tp1557
Rp1558
(dp1559
g37
I186
sbsg38
g1548
sg39
g1548
sbag4
(g5
g6
Ntp1560
Rp1561
(dp1562
g10
(lp1563
sg12
S'P.littoralis.7'
p1564
sg14
(dp1565
g16
S'Z72500.1/3161-3251'
p1566
ssg18
(lp1567
sg20
g4
(g21
g6
Ntp1568
Rp1569
(dp1570
g25
g26
sg28
S'GAAAGCCGUAUGAGGG---GAAA--CUUUCACGUACGGUUUGG------------------------AG-GAAAGUCGGGAA-------------------------------------------------------------GCUCUAAGGUAUUUGCUAUGAACUCUCGGCUCAUC-CU---AC'
p1571
sbsg30
g4
(g31
g32
(dp1572
tp1573
Rp1574
(dp1575
g37
I186
sbsg38
g1564
sg39
g1564
sbag4
(g5
g6
Ntp1576
Rp1577
(dp1578
g10
(lp1579
sg12
S'P.littoralis.8'
p1580
sg14
(dp1581
g16
S'AJ277126.1/6413-6487'
p1582
ssg18
(lp1583
sg20
g4
(g21
g6
Ntp1584
Rp1585
(dp1586
g25
g26
sg28
S'GUGAGCCGUGUGCGAU---GAAA--GUCGCAAGCACGGUUCUG-----------------------AUG-GGGGG-------------------------------------------------------------------------------AAAACGAGAGAUCGUCUACCUAUC-CA--ACU'
p1587
sbsg30
g4
(g31
g32
(dp1588
tp1589
Rp1590
(dp1591
g37
I186
sbsg38
g1580
sg39
g1580
sbasS'_annotations'
p1592
(dp1593
sS'_alphabet'
p1594
g26
sb.